Certificate:
    Data:
        Version: 3 (0x2)
        Serial Number: 1 (0x1)
        Signature Algorithm: sha256WithRSAEncryption
        Issuer: C=AU, ST=Some-State, O=Internet Widgits Pty Ltd, CN=root_ca
        Validity
            Not Before: Jan  6 09:02:34 2021 GMT
            Not After : Dec 13 09:02:34 2120 GMT
        Subject: C=AU, ST=Some-State, O=Internet Widgits Pty Ltd, CN=valid_server
        Subject Public Key Info:
            Public Key Algorithm: rsaEncryption
                RSA Public-Key: (2048 bit)
                Modulus:
                    00:a1:81:a4:22:68:34:ac:31:dc:fb:12:9d:3e:ff:
                    f9:e1:e7:1b:33:8f:45:7d:24:67:e2:f6:37:ef:21:
                    32:b6:2c:cb:61:72:94:37:cd:c0:6a:d1:e9:7f:e7:
                    4c:71:98:d5:c2:ed:97:a4:3d:7e:4e:7c:01:a5:5d:
                    2b:3a:30:fe:45:e5:a9:a5:f2:fd:b5:97:fc:6b:6f:
                    b1:62:71:66:5f:57:81:40:6f:49:8b:49:10:c0:85:
                    4a:99:90:c8:39:bf:67:d1:d1:ac:ae:9a:eb:cc:66:
                    f4:2e:2f:d2:a0:39:d7:74:75:2f:c4:08:e9:08:08:
                    39:08:a1:1a:1e:46:78:c9:e9:26:78:e5:30:94:1e:
                    86:a2:11:8d:c7:a6:ef:82:a5:2a:4b:71:1c:e7:25:
                    e6:b2:08:c0:a6:08:bd:2a:a4:cb:99:8d:04:75:a4:
                    f5:a1:6c:97:69:72:08:51:9a:5b:db:c6:d5:8d:18:
                    c0:0e:00:51:aa:a5:13:7b:7d:41:4a:23:03:09:6f:
                    58:e3:80:82:4a:01:66:21:2f:09:9e:ca:1c:06:56:
                    90:bb:c1:f0:6b:b0:08:ac:3b:48:1f:b6:34:24:9c:
                    88:7c:00:93:5d:e2:27:8a:d4:2a:bf:e5:3e:83:32:
                    8a:ab:63:40:75:09:74:c8:b6:b7:b6:e6:b9:ec:12:
                    4d:f9
                Exponent: 65537 (0x10001)
        X509v3 extensions:
            X509v3 Basic Constraints: 
                CA:FALSE
            Netscape Comment: 
                OpenSSL Generated Server Certificate
            X509v3 Subject Key Identifier: 
                45:2D:C7:CA:1C:99:46:D1:74:31:51:2F:A4:45:1D:63:E2:09:87:65
            X509v3 Authority Key Identifier: 
                keyid:EE:74:F0:D2:8C:52:23:33:C4:5F:41:49:D9:01:11:44:B8:CD:30:CB
                DirName:/C=AU/ST=Some-State/O=Internet Widgits Pty Ltd/CN=root_ca
                serial:17:C8:5C:F4:A6:F7:B0:C9:E7:7D:20:15:10:2C:7F:A1:92:F8:2E:55

            Authority Information Access: 
                OCSP - URI:http://127.0.0.1:8888

    Signature Algorithm: sha256WithRSAEncryption
         12:90:03:67:2b:45:ce:7e:bd:bd:d1:e6:8d:79:a4:8f:73:12:
         4d:52:72:d5:8a:38:96:4a:9e:15:b8:2d:7e:72:84:0a:77:bb:
         3d:e0:1e:a2:30:30:fc:19:de:cd:31:bf:47:6d:1d:be:d8:9b:
         e0:bb:42:ac:aa:4c:60:61:ce:5c:62:39:55:e9:37:3d:9c:7c:
         89:a1:6c:15:57:e1:ba:44:83:92:a1:ca:79:c5:c6:2d:05:8f:
         ea:a4:77:45:a0:17:27:a1:f9:a6:a3:89:30:d8:0e:f0:7f:39:
         5c:6f:0d:68:5a:c9:9e:5c:ab:95:99:26:c5:40:e6:76:77:f7:
         90:ac:0e:9f:09:24:32:aa:d4:d3:3b:cb:01:bb:13:9a:61:56:
         cd:68:9d:05:7f:90:be:27:ad:ad:e7:af:2f:14:35:b6:7d:f2:
         6a:71:64:f1:78:4d:b6:f7:98:fc:01:13:0a:c2:f1:c2:95:20:
         fd:ce:13:2f:de:b5:8d:37:72:ba:39:1f:a7:16:3a:6f:44:ec:
         c6:72:4d:57:a5:4a:29:25:5c:ed:57:3e:f7:54:58:dd:d1:22:
         eb:10:7a:b5:9d:cb:76:17:58:c2:4f:de:89:79:f8:93:10:67:
         c5:6b:4a:f5:6f:83:ed:c9:a9:b6:5d:9a:dc:b9:11:90:91:13:
         28:54:5b:5e:88:d1:90:29:22:aa:5b:5c:6c:28:81:09:78:a6:
         5a:dd:af:be:78:70:7a:84:21:07:e9:cb:0e:6d:b5:86:c2:22:
         a6:c9:c3:0a:4e:3a:3a:c3:99:be:2c:7b:e3:a5:71:0d:cb:e7:
         db:46:f9:df:07:46:47:d6:5e:e6:3e:85:09:75:9c:69:57:36:
         0f:00:16:e2:48:eb:04:a4:2e:22:84:75:d8:4c:09:92:41:d5:
         98:27:2b:d4:46:6b:54:0a:b4:e8:ba:9b:70:7d:08:cc:d2:d0:
         46:d4:d1:49:56:b6:b7:db:e2:5b:bc:0e:b9:0f:dc:1e:a2:40:
         2e:b5:d9:07:9d:f2:44:a1:5c:aa:81:67:bf:1a:ef:a2:15:63:
         38:64:79:5e:7c:e7:57:3c:3f:bc:89:62:92:d7:07:e0:38:ae:
         89:f8:bc:fe:fe:91:57:d4:52:ff:3b:ff:68:de:80:fe:31:84:
         f1:43:42:65:0a:dd:d2:01:bc:a7:52:3f:fe:42:d0:79:8f:99:
         77:2f:4e:0a:55:d6:4b:3d:2d:00:b4:e8:01:ad:d1:8c:9e:ea:
         58:8a:ee:05:cd:a4:d9:ba:9d:84:37:72:de:d8:70:86:a7:58:
         1e:e6:d3:ea:04:77:d7:f8:22:42:3d:47:6a:16:05:2b:3a:aa:
         1c:5e:bc:75:b4:5f:8c:8c
-----BEGIN CERTIFICATE-----
MIIFXzCCA0egAwIBAgIBATANBgkqhkiG9w0BAQsFADBXMQswCQYDVQQGEwJBVTET
MBEGA1UECAwKU29tZS1TdGF0ZTEhMB8GA1UECgwYSW50ZXJuZXQgV2lkZ2l0cyBQ
dHkgTHRkMRAwDgYDVQQDDAdyb290X2NhMCAXDTIxMDEwNjA5MDIzNFoYDzIxMjAx
MjEzMDkwMjM0WjBcMQswCQYDVQQGEwJBVTETMBEGA1UECAwKU29tZS1TdGF0ZTEh
MB8GA1UECgwYSW50ZXJuZXQgV2lkZ2l0cyBQdHkgTHRkMRUwEwYDVQQDDAx2YWxp
ZF9zZXJ2ZXIwggEiMA0GCSqGSIb3DQEBAQUAA4IBDwAwggEKAoIBAQChgaQiaDSs
Mdz7Ep0+//nh5xszj0V9JGfi9jfvITK2LMthcpQ3zcBq0el/50xxmNXC7ZekPX5O
fAGlXSs6MP5F5aml8v21l/xrb7FicWZfV4FAb0mLSRDAhUqZkMg5v2fR0ayumuvM
ZvQuL9KgOdd0dS/ECOkICDkIoRoeRnjJ6SZ45TCUHoaiEY3Hpu+CpSpLcRznJeay
CMCmCL0qpMuZjQR1pPWhbJdpcghRmlvbxtWNGMAOAFGqpRN7fUFKIwMJb1jjgIJK
AWYhLwmeyhwGVpC7wfBrsAisO0gftjQknIh8AJNd4ieK1Cq/5T6DMoqrY0B1CXTI
tre25rnsEk35AgMBAAGjggEtMIIBKTAJBgNVHRMEAjAAMDMGCWCGSAGG+EIBDQQm
FiRPcGVuU1NMIEdlbmVyYXRlZCBTZXJ2ZXIgQ2VydGlmaWNhdGUwHQYDVR0OBBYE
FEUtx8ocmUbRdDFRL6RFHWPiCYdlMIGUBgNVHSMEgYwwgYmAFO508NKMUiMzxF9B
SdkBEUS4zTDLoVukWTBXMQswCQYDVQQGEwJBVTETMBEGA1UECAwKU29tZS1TdGF0
ZTEhMB8GA1UECgwYSW50ZXJuZXQgV2lkZ2l0cyBQdHkgTHRkMRAwDgYDVQQDDAdy
b290X2NhghQXyFz0pvewyed9IBUQLH+hkvguVTAxBggrBgEFBQcBAQQlMCMwIQYI
KwYBBQUHMAGGFWh0dHA6Ly8xMjcuMC4wLjE6ODg4ODANBgkqhkiG9w0BAQsFAAOC
AgEAEpADZytFzn69vdHmjXmkj3MSTVJy1Yo4lkqeFbgtfnKECne7PeAeojAw/Bne
zTG/R20dvtib4LtCrKpMYGHOXGI5Vek3PZx8iaFsFVfhukSDkqHKecXGLQWP6qR3
RaAXJ6H5pqOJMNgO8H85XG8NaFrJnlyrlZkmxUDmdnf3kKwOnwkkMqrU0zvLAbsT
mmFWzWidBX+QvietreevLxQ1tn3yanFk8XhNtveY/AETCsLxwpUg/c4TL961jTdy
ujkfpxY6b0TsxnJNV6VKKSVc7Vc+91RY3dEi6xB6tZ3LdhdYwk/eiXn4kxBnxWtK
9W+D7cmptl2a3LkRkJETKFRbXojRkCkiqltcbCiBCXimWt2vvnhweoQhB+nLDm21
hsIipsnDCk46OsOZvix746VxDcvn20b53wdGR9Ze5j6FCXWcaVc2DwAW4kjrBKQu
IoR12EwJkkHVmCcr1EZrVAq06LqbcH0IzNLQRtTRSVa2t9viW7wOuQ/cHqJALrXZ
B53yRKFcqoFnvxrvohVjOGR5XnznVzw/vIliktcH4Diuifi8/v6RV9RS/zv/aN6A
/jGE8UNCZQrd0gG8p1I//kLQeY+Zdy9OClXWSz0tALToAa3RjJ7qWIruBc2k2bqd
hDdy3thwhqdYHubT6gR31/giQj1HahYFKzqqHF68dbRfjIw=
-----END CERTIFICATE-----
