Certificate:
    Data:
        Version: 3 (0x2)
        Serial Number:
            17:c8:5c:f4:a6:f7:b0:c9:e7:7d:20:15:10:2c:7f:a1:92:f8:2e:55
        Signature Algorithm: sha256WithRSAEncryption
        Issuer: C = AU, ST = Some-State, O = Internet Widgits Pty Ltd, CN = root_ca
        Validity
            Not Before: Jan  6 08:59:24 2021 GMT
            Not After : Dec 13 08:59:24 2120 GMT
        Subject: C = AU, ST = Some-State, O = Internet Widgits Pty Ltd, CN = root_ca
        Subject Public Key Info:
            Public Key Algorithm: rsaEncryption
                RSA Public-Key: (4096 bit)
                Modulus:
                    00:ba:5a:83:95:68:39:d6:30:63:2e:8d:df:32:0e:
                    49:26:1f:cf:74:9c:e9:19:5b:90:18:05:e8:d1:dc:
                    f0:67:09:1b:46:2a:b4:9c:61:5b:bd:c2:d3:43:39:
                    3a:d7:67:bb:3d:2a:fb:a1:a0:11:ce:ac:df:8c:51:
                    2e:43:0e:0e:a1:aa:96:f4:da:e0:b9:51:fe:3e:72:
                    80:ec:63:0e:f4:5f:8d:55:88:7b:2e:05:4d:48:b4:
                    6d:49:d2:fa:0d:d2:53:62:da:40:43:77:2e:8f:ce:
                    33:e6:c5:e2:52:f5:19:a1:93:21:3b:98:91:c9:de:
                    f8:d4:7d:76:28:a4:a5:c4:de:0f:e9:c8:e7:dc:94:
                    aa:d2:ef:35:97:f4:58:af:f7:76:15:75:a0:58:67:
                    92:f9:20:8e:39:bd:20:27:73:39:94:c3:0a:9c:b7:
                    a0:f0:75:a4:12:0d:b7:99:e6:f0:0e:16:8d:e3:9c:
                    37:fe:b0:4b:c5:67:d1:ad:61:f1:a2:8f:33:d8:11:
                    11:f3:b8:23:2c:82:4a:f2:05:6b:5d:46:cf:c3:bd:
                    fb:21:4f:9f:28:b2:5e:e7:24:fc:ed:ac:9a:12:bf:
                    bc:10:3f:c9:e5:08:0c:f3:39:9e:49:df:3f:37:5b:
                    73:a4:5c:25:f6:ea:cc:68:90:ea:51:5b:8d:ae:17:
                    59:b8:13:ef:4c:e0:da:a6:74:ab:bd:64:80:a3:46:
                    25:49:9d:b4:a3:6a:8f:2c:be:36:91:3d:6e:fb:d2:
                    e8:f5:fb:dc:20:08:9d:79:2b:e4:d8:b8:3c:e8:c3:
                    11:0d:7e:59:94:a2:73:9d:ba:dd:97:c4:10:d5:13:
                    71:86:88:6c:c3:52:7c:35:eb:34:87:2b:dc:15:20:
                    4b:f0:3a:a2:a7:30:de:20:c9:7b:15:b0:9d:69:93:
                    2e:4d:f0:73:d1:18:bf:4f:d0:a8:1c:12:f6:90:1d:
                    1e:e5:c0:75:57:50:ec:46:03:64:3f:0e:99:8c:f0:
                    41:6a:98:74:be:5f:fe:bc:2c:75:85:1f:53:ff:e5:
                    60:15:4c:a6:25:cd:9e:e9:0f:2e:c0:73:59:f4:16:
                    fe:60:2e:2f:28:8f:88:e7:ad:c0:b8:c9:c5:82:3a:
                    89:11:46:a6:15:e6:ef:96:e0:55:75:79:d0:d1:3d:
                    47:69:fa:d7:06:ce:31:91:61:6d:35:eb:96:e5:38:
                    2f:e2:79:e8:da:a2:c0:49:49:d0:18:ea:17:3e:6e:
                    9c:f6:e3:e5:8a:3e:51:ca:96:fa:38:5b:1b:21:8f:
                    b9:f0:44:f5:43:46:50:e3:68:2e:21:f0:af:03:2f:
                    9c:67:4b:14:54:83:ea:1e:64:89:c3:39:26:e1:32:
                    56:c4:61
                Exponent: 65537 (0x10001)
        X509v3 extensions:
            X509v3 Subject Key Identifier: 
                EE:74:F0:D2:8C:52:23:33:C4:5F:41:49:D9:01:11:44:B8:CD:30:CB
            X509v3 Authority Key Identifier: 
                keyid:EE:74:F0:D2:8C:52:23:33:C4:5F:41:49:D9:01:11:44:B8:CD:30:CB

            X509v3 Basic Constraints: critical
                CA:TRUE
    Signature Algorithm: sha256WithRSAEncryption
         2c:bc:52:f2:8e:52:e8:c6:16:90:58:a2:46:9d:fc:57:ee:dc:
         12:02:06:bb:61:20:c7:cf:58:45:70:78:ab:8a:68:f3:fd:8f:
         a0:e3:90:c0:27:63:79:53:3a:95:ce:c8:4f:1e:fd:85:ba:a4:
         73:08:fa:10:c2:54:87:33:8f:5a:5f:38:3d:6e:43:30:bc:9e:
         d8:42:f9:69:70:c2:2e:e1:5e:b6:45:9c:9f:2f:18:b7:52:3c:
         9b:7f:31:08:4f:72:df:d7:26:a1:f7:01:aa:7a:0b:23:ea:2c:
         ea:24:82:b8:01:4f:92:3b:09:09:c7:07:95:67:31:40:12:07:
         fc:17:63:cc:6e:6b:f4:72:3c:d1:59:56:27:93:50:5c:5b:7c:
         98:01:04:b0:53:43:ae:66:8e:f7:15:8c:11:ab:0c:c4:35:9e:
         8c:0b:bc:8b:03:d5:cc:e8:65:f4:63:8b:a0:41:d6:3f:7d:d5:
         f6:8a:54:01:1c:c8:fb:27:a9:e2:33:3a:be:ef:af:f7:c9:e9:
         64:c8:b6:48:2d:d0:86:34:b1:7b:87:9c:e9:ee:dd:c6:a0:06:
         a1:ec:21:7c:b5:c3:95:96:90:75:d3:37:97:98:f0:15:00:fb:
         3b:9a:c8:13:96:8c:10:63:03:84:fa:e7:4c:a0:0f:2e:04:32:
         3b:a4:6c:fd:71:2b:72:12:84:ee:de:87:72:09:8a:e8:8b:c5:
         02:1f:1b:ab:24:b9:ea:e0:1f:fc:66:18:2d:76:08:b3:5a:d6:
         e9:67:50:6c:c0:9b:99:b5:22:c5:ca:72:d6:a2:b9:16:0a:1b:
         d5:a4:2e:9e:fa:ad:6d:2f:1a:8a:fe:06:aa:47:02:ef:0d:ee:
         99:7a:bf:28:be:e3:9e:a7:16:c7:e0:b6:34:f9:73:c7:e6:5a:
         41:e5:1c:00:b6:82:b2:fc:f3:2c:30:a0:09:6d:08:23:44:a1:
         51:52:29:f2:41:3e:cb:93:9f:ef:2d:51:e2:df:41:f1:b5:df:
         b3:b8:71:18:d3:65:44:91:af:7a:38:6c:96:8e:c4:cd:bb:25:
         67:73:89:29:c9:2a:65:ba:07:86:56:b0:00:64:90:b5:11:c8:
         7f:3b:e1:01:0a:5a:ee:61:a9:ea:7e:b0:36:d3:44:47:d8:c6:
         dc:ca:b3:e6:bb:40:f5:5e:39:b0:f7:9a:b0:da:52:a7:44:c5:
         61:3b:07:b2:4c:45:dd:9d:02:e9:9d:17:67:75:96:cb:a9:30:
         1e:43:59:49:7e:c3:b4:09:b6:87:c8:2b:bd:f3:20:49:6e:5b:
         55:67:86:5a:79:73:f6:89:89:1d:97:89:6f:6b:45:e4:c1:54:
         ee:1e:9a:76:54:d2:6a:f1
-----BEGIN CERTIFICATE-----
MIIFkTCCA3mgAwIBAgIUF8hc9Kb3sMnnfSAVECx/oZL4LlUwDQYJKoZIhvcNAQEL
BQAwVzELMAkGA1UEBhMCQVUxEzARBgNVBAgMClNvbWUtU3RhdGUxITAfBgNVBAoM
GEludGVybmV0IFdpZGdpdHMgUHR5IEx0ZDEQMA4GA1UEAwwHcm9vdF9jYTAgFw0y
MTAxMDYwODU5MjRaGA8yMTIwMTIxMzA4NTkyNFowVzELMAkGA1UEBhMCQVUxEzAR
BgNVBAgMClNvbWUtU3RhdGUxITAfBgNVBAoMGEludGVybmV0IFdpZGdpdHMgUHR5
IEx0ZDEQMA4GA1UEAwwHcm9vdF9jYTCCAiIwDQYJKoZIhvcNAQEBBQADggIPADCC
AgoCggIBALpag5VoOdYwYy6N3zIOSSYfz3Sc6RlbkBgF6NHc8GcJG0YqtJxhW73C
00M5Otdnuz0q+6GgEc6s34xRLkMODqGqlvTa4LlR/j5ygOxjDvRfjVWIey4FTUi0
bUnS+g3SU2LaQEN3Lo/OM+bF4lL1GaGTITuYkcne+NR9diikpcTeD+nI59yUqtLv
NZf0WK/3dhV1oFhnkvkgjjm9ICdzOZTDCpy3oPB1pBINt5nm8A4WjeOcN/6wS8Vn
0a1h8aKPM9gREfO4IyyCSvIFa11Gz8O9+yFPnyiyXuck/O2smhK/vBA/yeUIDPM5
nknfPzdbc6RcJfbqzGiQ6lFbja4XWbgT70zg2qZ0q71kgKNGJUmdtKNqjyy+NpE9
bvvS6PX73CAInXkr5Ni4POjDEQ1+WZSic5263ZfEENUTcYaIbMNSfDXrNIcr3BUg
S/A6oqcw3iDJexWwnWmTLk3wc9EYv0/QqBwS9pAdHuXAdVdQ7EYDZD8OmYzwQWqY
dL5f/rwsdYUfU//lYBVMpiXNnukPLsBzWfQW/mAuLyiPiOetwLjJxYI6iRFGphXm
75bgVXV50NE9R2n61wbOMZFhbTXrluU4L+J56NqiwElJ0BjqFz5unPbj5Yo+UcqW
+jhbGyGPufBE9UNGUONoLiHwrwMvnGdLFFSD6h5kicM5JuEyVsRhAgMBAAGjUzBR
MB0GA1UdDgQWBBTudPDSjFIjM8RfQUnZARFEuM0wyzAfBgNVHSMEGDAWgBTudPDS
jFIjM8RfQUnZARFEuM0wyzAPBgNVHRMBAf8EBTADAQH/MA0GCSqGSIb3DQEBCwUA
A4ICAQAsvFLyjlLoxhaQWKJGnfxX7twSAga7YSDHz1hFcHirimjz/Y+g45DAJ2N5
UzqVzshPHv2FuqRzCPoQwlSHM49aXzg9bkMwvJ7YQvlpcMIu4V62RZyfLxi3Ujyb
fzEIT3Lf1yah9wGqegsj6izqJIK4AU+SOwkJxweVZzFAEgf8F2PMbmv0cjzRWVYn
k1BcW3yYAQSwU0OuZo73FYwRqwzENZ6MC7yLA9XM6GX0Y4ugQdY/fdX2ilQBHMj7
J6niMzq+76/3yelkyLZILdCGNLF7h5zp7t3GoAah7CF8tcOVlpB10zeXmPAVAPs7
msgTlowQYwOE+udMoA8uBDI7pGz9cStyEoTu3odyCYroi8UCHxurJLnq4B/8Zhgt
dgizWtbpZ1BswJuZtSLFynLWorkWChvVpC6e+q1tLxqK/gaqRwLvDe6Zer8ovuOe
pxbH4LY0+XPH5lpB5RwAtoKy/PMsMKAJbQgjRKFRUinyQT7Lk5/vLVHi30Hxtd+z
uHEY02VEka96OGyWjsTNuyVnc4kpySplugeGVrAAZJC1Ech/O+EBClruYanqfrA2
00RH2MbcyrPmu0D1Xjmw95qw2lKnRMVhOweyTEXdnQLpnRdndZbLqTAeQ1lJfsO0
CbaHyCu98yBJbltVZ4ZaeXP2iYkdl4lva0XkwVTuHpp2VNJq8Q==
-----END CERTIFICATE-----
