Certificate:
    Data:
        Version: 3 (0x2)
        Serial Number: 6 (0x6)
        Signature Algorithm: ecdsa-with-SHA256
        Issuer: C=AU, ST=Some-State, O=Internet Widgits Pty Ltd, CN=ecc_root_ca
        Validity
            Not Before: Feb  9 19:02:43 2021 GMT
            Not After : Feb  7 19:02:43 2031 GMT
        Subject: C=AU, ST=Some-State, O=Internet Widgits Pty Ltd, CN=ecc_server
        Subject Public Key Info:
            Public Key Algorithm: id-ecPublicKey
                Public-Key: (256 bit)
                pub:
                    04:25:bc:f6:32:93:c9:4d:9f:d5:4c:a9:49:ca:e5:
                    1f:5e:a2:72:dc:93:be:e0:4c:54:74:47:a6:8a:9f:
                    65:51:11:25:01:5f:6d:82:90:2d:c2:40:b0:07:95:
                    ad:42:73:28:52:eb:1e:5c:99:78:2f:17:a5:07:60:
                    dc:5d:58:93:54
                ASN1 OID: prime256v1
                NIST CURVE: P-256
        X509v3 extensions:
            X509v3 Basic Constraints: 
                CA:FALSE
            Netscape Comment: 
                OpenSSL Generated Server Certificate
            X509v3 Subject Key Identifier: 
                85:F2:16:B7:3D:D2:E8:26:88:15:11:B7:BC:19:BF:AF:0A:B3:22:3A
            X509v3 Authority Key Identifier: 
                keyid:D0:3A:FF:8A:A9:13:8B:7C:ED:2C:1F:61:29:69:E0:CB:E5:0F:AA:C0
                DirName:/C=AU/ST=Some-State/O=Internet Widgits Pty Ltd/CN=ecc_root_ca
                serial:70:18:44:95:9A:09:07:84:A4:AD:BE:1B:D8:C3:D2:DE:7B:81:2A:4E

            Authority Information Access: 
                OCSP - URI:http://127.0.0.1:8888

    Signature Algorithm: ecdsa-with-SHA256
         30:46:02:21:00:cd:4b:08:0e:70:36:41:de:e6:96:b2:9c:9b:
         31:8a:4c:3b:b6:3d:f8:5f:0b:fa:1e:0b:54:33:3a:c5:af:83:
         b0:02:21:00:c0:2c:5f:1e:8f:04:f2:c8:54:06:28:c5:48:53:
         2d:61:37:34:09:90:da:8f:76:ab:08:4f:b9:f4:f8:0f:57:74
-----BEGIN CERTIFICATE-----
MIIC2DCCAn2gAwIBAgIBBjAKBggqhkjOPQQDAjBbMQswCQYDVQQGEwJBVTETMBEG
A1UECAwKU29tZS1TdGF0ZTEhMB8GA1UECgwYSW50ZXJuZXQgV2lkZ2l0cyBQdHkg
THRkMRQwEgYDVQQDDAtlY2Nfcm9vdF9jYTAeFw0yMTAyMDkxOTAyNDNaFw0zMTAy
MDcxOTAyNDNaMFoxCzAJBgNVBAYTAkFVMRMwEQYDVQQIDApTb21lLVN0YXRlMSEw
HwYDVQQKDBhJbnRlcm5ldCBXaWRnaXRzIFB0eSBMdGQxEzARBgNVBAMMCmVjY19z
ZXJ2ZXIwWTATBgcqhkjOPQIBBggqhkjOPQMBBwNCAAQlvPYyk8lNn9VMqUnK5R9e
onLck77gTFR0R6aKn2VRESUBX22CkC3CQLAHla1CcyhS6x5cmXgvF6UHYNxdWJNU
o4IBMTCCAS0wCQYDVR0TBAIwADAzBglghkgBhvhCAQ0EJhYkT3BlblNTTCBHZW5l
cmF0ZWQgU2VydmVyIENlcnRpZmljYXRlMB0GA1UdDgQWBBSF8ha3PdLoJogVEbe8
Gb+vCrMiOjCBmAYDVR0jBIGQMIGNgBTQOv+KqROLfO0sH2EpaeDL5Q+qwKFfpF0w
WzELMAkGA1UEBhMCQVUxEzARBgNVBAgMClNvbWUtU3RhdGUxITAfBgNVBAoMGElu
dGVybmV0IFdpZGdpdHMgUHR5IEx0ZDEUMBIGA1UEAwwLZWNjX3Jvb3RfY2GCFHAY
RJWaCQeEpK2+G9jD0t57gSpOMDEGCCsGAQUFBwEBBCUwIzAhBggrBgEFBQcwAYYV
aHR0cDovLzEyNy4wLjAuMTo4ODg4MAoGCCqGSM49BAMCA0kAMEYCIQDNSwgOcDZB
3uaWspybMYpMO7Y9+F8L+h4LVDM6xa+DsAIhAMAsXx6PBPLIVAYoxUhTLWE3NAmQ
2o92qwhPufT4D1d0
-----END CERTIFICATE-----
