Certificate:
    Data:
        Version: 3 (0x2)
        Serial Number:
            70:18:44:95:9a:09:07:84:a4:ad:be:1b:d8:c3:d2:de:7b:81:2a:4e
        Signature Algorithm: ecdsa-with-SHA256
        Issuer: C = AU, ST = Some-State, O = Internet Widgits Pty Ltd, CN = ecc_root_ca
        Validity
            Not Before: Feb  9 18:52:55 2021 GMT
            Not After : Feb  7 18:52:55 2031 GMT
        Subject: C = AU, ST = Some-State, O = Internet Widgits Pty Ltd, CN = ecc_root_ca
        Subject Public Key Info:
            Public Key Algorithm: id-ecPublicKey
                Public-Key: (256 bit)
                pub:
                    04:dc:1d:a0:97:45:c2:e4:6f:fd:d6:8f:a5:47:78:
                    41:55:b2:4c:c7:86:66:b9:3c:07:db:ca:62:7d:98:
                    da:d3:5d:4c:95:02:8f:34:ee:63:9b:ef:ac:45:7e:
                    14:fb:e8:83:21:4a:db:69:b5:e5:db:b0:bc:0a:93:
                    f8:73:87:1a:a6
                ASN1 OID: prime256v1
                NIST CURVE: P-256
        X509v3 extensions:
            X509v3 Subject Key Identifier: 
                D0:3A:FF:8A:A9:13:8B:7C:ED:2C:1F:61:29:69:E0:CB:E5:0F:AA:C0
            X509v3 Authority Key Identifier: 
                keyid:D0:3A:FF:8A:A9:13:8B:7C:ED:2C:1F:61:29:69:E0:CB:E5:0F:AA:C0

            X509v3 Basic Constraints: critical
                CA:TRUE
    Signature Algorithm: ecdsa-with-SHA256
         30:44:02:20:45:fb:54:95:c6:5d:c3:53:bd:76:7d:b2:b7:80:
         ee:32:19:6f:3d:ad:fa:36:1f:5b:23:a8:5e:78:7c:89:9a:5a:
         02:20:18:d0:83:7f:d1:53:fa:7f:6b:c5:f2:f5:04:7d:2a:fa:
         4f:91:b1:2c:29:d0:ed:cb:12:ec:0c:71:66:31:4d:08
-----BEGIN CERTIFICATE-----
MIICCjCCAbGgAwIBAgIUcBhElZoJB4Skrb4b2MPS3nuBKk4wCgYIKoZIzj0EAwIw
WzELMAkGA1UEBhMCQVUxEzARBgNVBAgMClNvbWUtU3RhdGUxITAfBgNVBAoMGElu
dGVybmV0IFdpZGdpdHMgUHR5IEx0ZDEUMBIGA1UEAwwLZWNjX3Jvb3RfY2EwHhcN
MjEwMjA5MTg1MjU1WhcNMzEwMjA3MTg1MjU1WjBbMQswCQYDVQQGEwJBVTETMBEG
A1UECAwKU29tZS1TdGF0ZTEhMB8GA1UECgwYSW50ZXJuZXQgV2lkZ2l0cyBQdHkg
THRkMRQwEgYDVQQDDAtlY2Nfcm9vdF9jYTBZMBMGByqGSM49AgEGCCqGSM49AwEH
A0IABNwdoJdFwuRv/daPpUd4QVWyTMeGZrk8B9vKYn2Y2tNdTJUCjzTuY5vvrEV+
FPvogyFK22m15duwvAqT+HOHGqajUzBRMB0GA1UdDgQWBBTQOv+KqROLfO0sH2Ep
aeDL5Q+qwDAfBgNVHSMEGDAWgBTQOv+KqROLfO0sH2EpaeDL5Q+qwDAPBgNVHRMB
Af8EBTADAQH/MAoGCCqGSM49BAMCA0cAMEQCIEX7VJXGXcNTvXZ9sreA7jIZbz2t
+jYfWyOoXnh8iZpaAiAY0IN/0VP6f2vF8vUEfSr6T5GxLCnQ7csS7AxxZjFNCA==
-----END CERTIFICATE-----
