Certificate Request:
    Data:
        Version: 1 (0x0)
        Subject: C=AU, ST=Some-State, O=Internet Widgits Pty Ltd, CN=server2
        Subject Public Key Info:
            Public Key Algorithm: rsaEncryption
                Public-Key: (4096 bit)
                Modulus:
                    00:99:fc:f9:92:f6:eb:16:78:19:ff:a6:57:50:7c:
                    76:7a:45:40:42:5b:72:23:65:3d:4d:fe:e9:98:f8:
                    8c:d0:f8:61:0d:20:30:e3:81:6b:1a:29:bf:f3:6c:
                    a1:24:59:0a:47:a0:d8:ee:a0:5e:25:95:8f:00:0d:
                    de:94:9f:b0:27:cd:90:55:33:e8:ec:a0:b3:7e:a1:
                    cb:0f:3a:4e:b7:8a:5c:b4:1e:84:c1:9b:e2:53:87:
                    c7:79:e9:a0:80:32:6b:8b:a4:78:75:38:95:d7:7b:
                    02:94:5c:64:c3:74:6f:5c:e3:28:d0:6f:13:b2:76:
                    f3:11:e4:f4:e0:90:d5:e9:d2:4d:d0:b2:d4:c0:1f:
                    fb:85:05:4f:af:d8:d9:1e:31:11:cf:c8:6f:a6:fe:
                    d1:20:56:4e:4d:e4:56:08:f6:9b:e4:3c:fc:58:6b:
                    01:36:fa:be:98:c9:ae:6a:08:cc:b4:b8:db:0a:1c:
                    2a:4e:01:42:45:1d:ff:da:5f:dd:d4:38:56:31:14:
                    6e:82:b4:f8:47:2a:00:f9:1f:a9:ab:cd:22:e5:c2:
                    37:3c:1d:76:f3:0c:d6:5c:39:8f:af:7e:f4:80:20:
                    87:f4:5c:ab:37:a4:ca:de:d9:5c:2d:03:ad:69:4f:
                    8c:c3:3a:12:30:a7:6b:d5:17:2b:2f:f3:c9:a1:df:
                    da:8e:dd:a6:1a:99:86:60:4e:fa:3b:88:2c:26:98:
                    a6:61:4b:fe:43:37:e5:1e:86:f9:d0:1c:94:41:90:
                    cc:a0:54:3b:dc:c0:00:b7:8a:b5:ec:25:8c:dc:1f:
                    76:cf:c6:3b:3b:14:86:63:c5:48:a5:ec:56:2b:0a:
                    23:5a:ed:d0:02:04:2b:d4:42:cc:91:f0:4d:5b:f3:
                    ea:a8:3e:31:0b:ad:f2:ac:c7:3c:18:d9:eb:02:99:
                    90:5f:96:0f:d3:c3:72:c1:0b:ec:b5:ce:c7:7e:b2:
                    08:a3:a6:69:28:09:21:1d:df:ca:76:91:84:bb:b9:
                    83:c6:ff:4e:16:72:5c:32:56:af:b6:a4:da:4d:72:
                    06:4d:18:54:3f:67:74:cc:da:ce:9c:d4:17:af:5c:
                    87:d5:2c:06:bc:16:3c:03:d1:5d:af:ee:de:f2:6b:
                    fd:db:08:10:aa:0c:00:fc:a2:59:11:0d:51:4f:5b:
                    09:79:c4:33:f5:f5:01:05:9d:22:5c:26:4b:dd:45:
                    7e:98:a4:2b:9d:46:9a:89:02:b4:3e:2a:7c:13:9e:
                    49:eb:0e:13:bc:cf:f7:be:e3:5e:ff:7a:1e:03:77:
                    40:5a:c5:e1:bd:37:3a:9b:20:45:f0:44:05:cb:c0:
                    cd:43:21:ac:f2:a1:55:ce:0a:d2:99:f6:a5:69:f0:
                    59:4a:8f
                Exponent: 65537 (0x10001)
        Attributes:
            a0:00
    Signature Algorithm: sha256WithRSAEncryption
         4c:12:4f:bf:06:e8:9e:3e:44:00:ee:eb:5e:a4:6b:cb:c4:9a:
         22:d5:7d:ee:06:47:b0:aa:64:0a:35:3b:53:ba:06:85:0a:dc:
         58:85:eb:4b:36:02:ab:e2:c6:fe:f8:32:ae:24:da:4c:67:50:
         8e:d3:7f:db:6d:79:e8:47:86:58:56:7a:cd:2d:40:81:05:74:
         86:02:95:77:bf:d2:f7:de:80:12:8e:3f:ea:88:06:e4:87:a5:
         66:e1:32:53:71:ae:4b:2f:bb:cf:b4:33:1d:9b:5c:16:b5:45:
         00:d5:54:ef:93:0f:4e:3a:a6:a6:f8:49:0c:e1:bf:dd:eb:90:
         9f:17:fa:69:4a:a4:7b:13:ac:7b:51:20:e8:e2:87:cf:a5:d8:
         0d:5d:70:5d:2e:fd:ff:ea:f7:da:8f:83:8b:95:ec:c1:c4:b1:
         52:86:3f:9d:22:0f:10:27:0e:dc:49:c8:9a:6d:15:78:f9:3d:
         ba:2c:b6:c9:5a:03:4b:08:12:ba:24:43:dc:b3:f2:dc:17:1b:
         2e:42:71:e7:bb:53:fb:a1:31:2d:37:10:35:cc:d3:46:0b:77:
         31:d0:4b:c7:bd:68:c0:3b:cf:86:d4:f4:8a:53:f8:ec:da:72:
         d0:4d:3b:5d:3b:2e:d0:8b:72:8a:ec:f8:60:3f:bc:59:16:e2:
         56:b4:71:9a:d8:1a:c1:e5:1b:5f:05:02:7d:be:ad:c4:f0:11:
         8a:2d:32:43:3f:1f:e4:80:1c:66:c6:35:ed:27:43:20:f9:e6:
         61:36:8f:e9:33:06:ad:7b:a1:77:89:d6:8e:ee:be:d4:c7:86:
         b0:5f:c3:0d:c5:b8:6f:60:85:3e:b7:11:bd:d0:98:d1:08:b0:
         02:ee:22:b7:f8:b1:b1:9f:6d:37:eb:5a:83:cb:67:4b:b8:89:
         d6:90:74:2a:de:a4:c6:89:d9:cf:f7:b0:7c:8a:82:df:f4:f7:
         3f:5a:b5:1d:bc:4e:68:72:9b:ed:49:11:9b:c7:cf:77:b2:65:
         e7:34:43:21:b0:4a:25:62:fd:76:cf:c1:c5:e3:0a:01:65:39:
         2e:3d:89:33:dd:38:73:c9:9e:f2:b8:22:13:b8:6e:95:94:05:
         a8:9f:c5:86:be:28:44:33:a3:4e:c4:66:c0:5d:e3:90:d4:12:
         18:eb:a1:8b:fa:ce:9e:31:e3:0f:11:19:c8:c3:24:1b:5e:90:
         f7:d1:1d:ee:ab:82:ac:26:ee:66:64:ee:8f:46:a1:ac:44:70:
         fc:79:07:d0:10:5a:e2:33:65:a9:46:a0:e3:dd:45:1b:43:a1:
         bb:b8:ba:86:a4:db:b4:5e:87:d1:58:7d:e5:6c:ab:42:56:28:
         68:e3:fb:30:1c:a7:d3:cb
-----BEGIN CERTIFICATE REQUEST-----
MIIEnDCCAoQCAQAwVzELMAkGA1UEBhMCQVUxEzARBgNVBAgMClNvbWUtU3RhdGUx
ITAfBgNVBAoMGEludGVybmV0IFdpZGdpdHMgUHR5IEx0ZDEQMA4GA1UEAwwHc2Vy
dmVyMjCCAiIwDQYJKoZIhvcNAQEBBQADggIPADCCAgoCggIBAJn8+ZL26xZ4Gf+m
V1B8dnpFQEJbciNlPU3+6Zj4jND4YQ0gMOOBaxopv/NsoSRZCkeg2O6gXiWVjwAN
3pSfsCfNkFUz6Oygs36hyw86TreKXLQehMGb4lOHx3npoIAya4ukeHU4ldd7ApRc
ZMN0b1zjKNBvE7J28xHk9OCQ1enSTdCy1MAf+4UFT6/Y2R4xEc/Ib6b+0SBWTk3k
Vgj2m+Q8/FhrATb6vpjJrmoIzLS42wocKk4BQkUd/9pf3dQ4VjEUboK0+EcqAPkf
qavNIuXCNzwddvMM1lw5j69+9IAgh/Rcqzekyt7ZXC0DrWlPjMM6EjCna9UXKy/z
yaHf2o7dphqZhmBO+juILCaYpmFL/kM35R6G+dAclEGQzKBUO9zAALeKtewljNwf
ds/GOzsUhmPFSKXsVisKI1rt0AIEK9RCzJHwTVvz6qg+MQut8qzHPBjZ6wKZkF+W
D9PDcsEL7LXOx36yCKOmaSgJIR3fynaRhLu5g8b/ThZyXDJWr7ak2k1yBk0YVD9n
dMzazpzUF69ch9UsBrwWPAPRXa/u3vJr/dsIEKoMAPyiWRENUU9bCXnEM/X1AQWd
IlwmS91FfpikK51GmokCtD4qfBOeSesOE7zP977jXv96HgN3QFrF4b03OpsgRfBE
BcvAzUMhrPKhVc4K0pn2pWnwWUqPAgMBAAGgADANBgkqhkiG9w0BAQsFAAOCAgEA
TBJPvwbonj5EAO7rXqRry8SaItV97gZHsKpkCjU7U7oGhQrcWIXrSzYCq+LG/vgy
riTaTGdQjtN/22156EeGWFZ6zS1AgQV0hgKVd7/S996AEo4/6ogG5IelZuEyU3Gu
Sy+7z7QzHZtcFrVFANVU75MPTjqmpvhJDOG/3euQnxf6aUqkexOse1Eg6OKHz6XY
DV1wXS79/+r32o+Di5XswcSxUoY/nSIPECcO3EnImm0VePk9uiy2yVoDSwgSuiRD
3LPy3BcbLkJx57tT+6ExLTcQNczTRgt3MdBLx71owDvPhtT0ilP47Npy0E07XTsu
0Ityiuz4YD+8WRbiVrRxmtgaweUbXwUCfb6txPARii0yQz8f5IAcZsY17SdDIPnm
YTaP6TMGrXuhd4nWju6+1MeGsF/DDcW4b2CFPrcRvdCY0QiwAu4it/ixsZ9tN+ta
g8tnS7iJ1pB0Kt6kxonZz/ewfIqC3/T3P1q1HbxOaHKb7UkRm8fPd7Jl5zRDIbBK
JWL9ds/BxeMKAWU5Lj2JM904c8me8rgiE7hulZQFqJ/Fhr4oRDOjTsRmwF3jkNQS
GOuhi/rOnjHjDxEZyMMkG16Q99Ed7quCrCbuZmTuj0ahrERw/HkH0BBa4jNlqUag
491FG0Ohu7i6hqTbtF6H0Vh95WyrQlYoaOP7MByn08s=
-----END CERTIFICATE REQUEST-----
