Certificate:
    Data:
        Version: 3 (0x2)
        Serial Number: 2 (0x2)
    Signature Algorithm: sha256WithRSAEncryption
        Issuer: C=AU, ST=Some-State, O=Internet Widgits Pty Ltd, CN=server.ca
        Validity
            Not Before: Jun 12 08:56:41 2019 GMT
            Not After : Jun 11 08:56:41 2020 GMT
        Subject: C=AU, ST=Some-State, O=Internet Widgits Pty Ltd, CN=ocsp
        Subject Public Key Info:
            Public Key Algorithm: rsaEncryption
                Public-Key: (2048 bit)
                Modulus:
                    00:c0:92:9e:1b:4c:a4:4e:51:86:59:e8:6a:ac:d6:
                    1a:d1:81:64:8c:d8:d4:6f:4d:af:30:4a:71:e7:44:
                    6b:a5:29:d7:2b:03:e6:3e:26:65:ef:6f:5e:47:b7:
                    53:18:5c:e1:39:e2:c4:c9:df:81:50:d6:c1:34:87:
                    27:96:24:db:b5:90:40:90:26:55:05:e8:57:f3:08:
                    62:85:2e:98:00:74:59:86:84:0d:a2:6b:bd:58:66:
                    c6:19:66:b3:9b:bf:f1:b5:e4:60:f5:33:b8:55:16:
                    70:c1:22:af:66:f8:b0:31:b3:c6:93:c2:9c:c3:f1:
                    90:08:51:a4:fe:cc:4e:b0:83:df:92:67:13:e6:88:
                    f7:0d:11:0d:dd:c2:3f:f3:02:f2:7f:df:89:84:3d:
                    88:91:87:03:3a:e5:9f:32:a7:cc:02:81:b8:6e:08:
                    03:4d:06:93:54:23:92:61:21:0b:2a:5d:65:f5:11:
                    fa:80:97:a0:50:a8:37:68:50:f6:c5:48:ab:ca:be:
                    d8:c2:7e:df:5f:3f:87:15:6a:2f:6a:ff:90:13:4f:
                    5e:53:71:a0:3c:65:5d:26:33:bb:83:12:71:8c:cd:
                    ce:6c:66:16:c7:4a:7c:9d:34:b5:bf:06:cf:4d:4a:
                    db:c7:9a:e3:28:97:f7:03:7b:2e:22:a5:23:40:21:
                    4a:d7
                Exponent: 65537 (0x10001)
        X509v3 extensions:
            Authority Information Access: 
                OCSP - URI:http://127.0.0.1:8888

            X509v3 Basic Constraints: 
                CA:FALSE
            Netscape Comment: 
                OpenSSL Generated Certificate
            X509v3 Subject Key Identifier: 
                DC:A5:66:C7:48:17:A4:79:17:26:C9:C9:7F:0F:75:65:FD:8C:4A:9C
            X509v3 Authority Key Identifier: 
                keyid:C5:57:DE:D0:3C:C4:BE:69:50:34:22:A3:C3:68:C8:7D:91:36:9C:53

    Signature Algorithm: sha256WithRSAEncryption
         71:93:16:17:e6:f0:12:1b:65:50:b1:8c:9b:83:8f:7f:83:3b:
         5d:e7:4f:11:21:dd:75:0e:a6:32:88:56:da:34:d3:d7:73:3d:
         e4:5d:bd:f2:77:37:f1:53:99:4d:e4:b0:ff:9f:26:84:95:00:
         59:08:04:91:9d:46:90:4b:50:72:a0:31:59:6c:b2:b4:80:5c:
         53:60:42:dc:ba:12:a5:08:7d:13:12:a3:26:33:f9:4b:37:fc:
         73:40:85:3f:b1:78:5b:2a:65:f4:d4:32:ba:da:a6:43:55:6a:
         70:b8:25:cf:3d:eb:51:a2:e8:32:d7:79:9a:a4:5b:99:1a:f7:
         9c:21:da:5c:52:00:d8:47:5c:12:34:a7:2d:87:a2:4f:42:dd:
         e5:d8:83:f7:5f:7c:74:72:ce:07:ab:df:a0:3b:f9:0d:38:f7:
         2b:d8:6d:a6:1f:01:6b:c7:f3:72:c1:e3:4d:4d:2a:80:ed:da:
         93:18:a5:36:25:ad:e9:1a:c1:71:34:61:7d:b0:bd:da:1e:45:
         8f:e6:c0:5a:a4:ef:14:d1:d9:1f:0c:da:15:4f:6f:26:f9:8f:
         15:b7:2d:bf:32:bc:ec:b5:b6:8f:a5:3e:99:36:ef:18:80:ed:
         2c:2d:d1:c0:97:5a:67:3b:52:87:95:bf:71:ee:88:4d:0f:3b:
         db:1e:9b:66:27:01:52:81:b0:d5:3d:b6:f0:df:07:b4:27:24:
         aa:11:a6:73:ea:dc:ca:39:9a:be:cf:57:9a:77:34:41:ae:c3:
         ba:9a:3d:43:bd:14:ff:ce:3c:79:19:c1:95:06:d1:fd:d6:b7:
         2c:2e:4c:09:e9:06:4c:2e:11:9b:b1:54:53:11:3b:27:91:54:
         2c:24:6b:a9:16:82:dd:41:be:27:13:5d:66:b1:a6:a6:6a:30:
         b3:eb:1a:3a:93:56:6d:85:93:fe:4e:eb:4f:42:9b:53:07:9a:
         c1:b1:d1:a5:da:d2:eb:38:1b:ae:8d:eb:cc:f5:8d:4d:b0:65:
         a2:20:c8:fe:6f:f8:a1:3a:3d:f8:cd:e1:16:08:b9:24:8e:e5:
         eb:27:dd:49:df:2d:32:1d:5d:23:3a:f5:71:a3:4c:f3:7c:08:
         5d:e8:6d:fe:6b:f2:eb:c7:28:2f:e1:5f:6e:74:5f:be:06:c3:
         a1:4f:91:20:9c:46:30:74:6e:7b:13:b7:14:89:87:37:06:ab:
         0d:2c:46:68:ad:5d:5d:ef:f5:ba:bd:ed:07:c8:6a:24:14:5f:
         99:53:c7:df:7e:bb:35:fb:f3:93:fc:93:7e:99:01:01:58:40:
         07:5c:09:3a:b7:89:36:fd:7d:48:3d:79:e6:c3:e3:c8:c3:0c:
         fc:5a:7e:46:df:72:93:4e
-----BEGIN CERTIFICATE-----
MIIE2DCCAsCgAwIBAgIBAjANBgkqhkiG9w0BAQsFADBZMQswCQYDVQQGEwJBVTET
MBEGA1UECAwKU29tZS1TdGF0ZTEhMB8GA1UECgwYSW50ZXJuZXQgV2lkZ2l0cyBQ
dHkgTHRkMRIwEAYDVQQDDAlzZXJ2ZXIuY2EwHhcNMTkwNjEyMDg1NjQxWhcNMjAw
NjExMDg1NjQxWjBUMQswCQYDVQQGEwJBVTETMBEGA1UECAwKU29tZS1TdGF0ZTEh
MB8GA1UECgwYSW50ZXJuZXQgV2lkZ2l0cyBQdHkgTHRkMQ0wCwYDVQQDDARvY3Nw
MIIBIjANBgkqhkiG9w0BAQEFAAOCAQ8AMIIBCgKCAQEAwJKeG0ykTlGGWehqrNYa
0YFkjNjUb02vMEpx50RrpSnXKwPmPiZl729eR7dTGFzhOeLEyd+BUNbBNIcnliTb
tZBAkCZVBehX8whihS6YAHRZhoQNomu9WGbGGWazm7/xteRg9TO4VRZwwSKvZviw
MbPGk8Kcw/GQCFGk/sxOsIPfkmcT5oj3DREN3cI/8wLyf9+JhD2IkYcDOuWfMqfM
AoG4bggDTQaTVCOSYSELKl1l9RH6gJegUKg3aFD2xUiryr7Ywn7fXz+HFWovav+Q
E09eU3GgPGVdJjO7gxJxjM3ObGYWx0p8nTS1vwbPTUrbx5rjKJf3A3suIqUjQCFK
1wIDAQABo4GvMIGsMDEGCCsGAQUFBwEBBCUwIzAhBggrBgEFBQcwAYYVaHR0cDov
LzEyNy4wLjAuMTo4ODg4MAkGA1UdEwQCMAAwLAYJYIZIAYb4QgENBB8WHU9wZW5T
U0wgR2VuZXJhdGVkIENlcnRpZmljYXRlMB0GA1UdDgQWBBTcpWbHSBekeRcmycl/
D3Vl/YxKnDAfBgNVHSMEGDAWgBTFV97QPMS+aVA0IqPDaMh9kTacUzANBgkqhkiG
9w0BAQsFAAOCAgEAcZMWF+bwEhtlULGMm4OPf4M7XedPESHddQ6mMohW2jTT13M9
5F298nc38VOZTeSw/58mhJUAWQgEkZ1GkEtQcqAxWWyytIBcU2BC3LoSpQh9ExKj
JjP5Szf8c0CFP7F4Wypl9NQyutqmQ1VqcLglzz3rUaLoMtd5mqRbmRr3nCHaXFIA
2EdcEjSnLYeiT0Ld5diD9198dHLOB6vfoDv5DTj3K9htph8Ba8fzcsHjTU0qgO3a
kxilNiWt6RrBcTRhfbC92h5Fj+bAWqTvFNHZHwzaFU9vJvmPFbctvzK87LW2j6U+
mTbvGIDtLC3RwJdaZztSh5W/ce6ITQ872x6bZicBUoGw1T228N8HtCckqhGmc+rc
yjmavs9Xmnc0Qa7Dupo9Q70U/848eRnBlQbR/da3LC5MCekGTC4Rm7FUUxE7J5FU
LCRrqRaC3UG+JxNdZrGmpmows+saOpNWbYWT/k7rT0KbUweawbHRpdrS6zgbro3r
zPWNTbBloiDI/m/4oTo9+M3hFgi5JI7l6yfdSd8tMh1dIzr1caNM83wIXeht/mvy
68coL+FfbnRfvgbDoU+RIJxGMHRuexO3FImHNwarDSxGaK1dXe/1ur3tB8hqJBRf
mVPH3367Nfvzk/yTfpkBAVhAB1wJOreJNv19SD155sPjyMMM/Fp+Rt9yk04=
-----END CERTIFICATE-----
