Certificate:
    Data:
        Version: 3 (0x2)
        Serial Number: 2 (0x2)
    Signature Algorithm: sha256WithRSAEncryption
        Issuer: C=AU, ST=Some-State, O=Internet Widgits Pty Ltd, CN=server.ca
        Validity
            Not Before: Jun 18 14:25:24 2019 GMT
            Not After : Jun 17 14:25:24 2020 GMT
        Subject: C=AU, ST=Some-State, O=Internet Widgits Pty Ltd, CN=server
        Subject Public Key Info:
            Public Key Algorithm: rsaEncryption
                Public-Key: (4096 bit)
                Modulus:
                    00:99:fc:f9:92:f6:eb:16:78:19:ff:a6:57:50:7c:
                    76:7a:45:40:42:5b:72:23:65:3d:4d:fe:e9:98:f8:
                    8c:d0:f8:61:0d:20:30:e3:81:6b:1a:29:bf:f3:6c:
                    a1:24:59:0a:47:a0:d8:ee:a0:5e:25:95:8f:00:0d:
                    de:94:9f:b0:27:cd:90:55:33:e8:ec:a0:b3:7e:a1:
                    cb:0f:3a:4e:b7:8a:5c:b4:1e:84:c1:9b:e2:53:87:
                    c7:79:e9:a0:80:32:6b:8b:a4:78:75:38:95:d7:7b:
                    02:94:5c:64:c3:74:6f:5c:e3:28:d0:6f:13:b2:76:
                    f3:11:e4:f4:e0:90:d5:e9:d2:4d:d0:b2:d4:c0:1f:
                    fb:85:05:4f:af:d8:d9:1e:31:11:cf:c8:6f:a6:fe:
                    d1:20:56:4e:4d:e4:56:08:f6:9b:e4:3c:fc:58:6b:
                    01:36:fa:be:98:c9:ae:6a:08:cc:b4:b8:db:0a:1c:
                    2a:4e:01:42:45:1d:ff:da:5f:dd:d4:38:56:31:14:
                    6e:82:b4:f8:47:2a:00:f9:1f:a9:ab:cd:22:e5:c2:
                    37:3c:1d:76:f3:0c:d6:5c:39:8f:af:7e:f4:80:20:
                    87:f4:5c:ab:37:a4:ca:de:d9:5c:2d:03:ad:69:4f:
                    8c:c3:3a:12:30:a7:6b:d5:17:2b:2f:f3:c9:a1:df:
                    da:8e:dd:a6:1a:99:86:60:4e:fa:3b:88:2c:26:98:
                    a6:61:4b:fe:43:37:e5:1e:86:f9:d0:1c:94:41:90:
                    cc:a0:54:3b:dc:c0:00:b7:8a:b5:ec:25:8c:dc:1f:
                    76:cf:c6:3b:3b:14:86:63:c5:48:a5:ec:56:2b:0a:
                    23:5a:ed:d0:02:04:2b:d4:42:cc:91:f0:4d:5b:f3:
                    ea:a8:3e:31:0b:ad:f2:ac:c7:3c:18:d9:eb:02:99:
                    90:5f:96:0f:d3:c3:72:c1:0b:ec:b5:ce:c7:7e:b2:
                    08:a3:a6:69:28:09:21:1d:df:ca:76:91:84:bb:b9:
                    83:c6:ff:4e:16:72:5c:32:56:af:b6:a4:da:4d:72:
                    06:4d:18:54:3f:67:74:cc:da:ce:9c:d4:17:af:5c:
                    87:d5:2c:06:bc:16:3c:03:d1:5d:af:ee:de:f2:6b:
                    fd:db:08:10:aa:0c:00:fc:a2:59:11:0d:51:4f:5b:
                    09:79:c4:33:f5:f5:01:05:9d:22:5c:26:4b:dd:45:
                    7e:98:a4:2b:9d:46:9a:89:02:b4:3e:2a:7c:13:9e:
                    49:eb:0e:13:bc:cf:f7:be:e3:5e:ff:7a:1e:03:77:
                    40:5a:c5:e1:bd:37:3a:9b:20:45:f0:44:05:cb:c0:
                    cd:43:21:ac:f2:a1:55:ce:0a:d2:99:f6:a5:69:f0:
                    59:4a:8f
                Exponent: 65537 (0x10001)
        X509v3 extensions:
            Authority Information Access: 
                OCSP - URI:http://127.0.0.1:8888

            X509v3 Basic Constraints: 
                CA:FALSE
            Netscape Comment: 
                OpenSSL Generated Certificate
            X509v3 Subject Key Identifier: 
                7F:39:84:EF:40:CF:F2:36:D8:3C:DF:3E:8C:DB:43:7A:1A:96:71:CB
            X509v3 Authority Key Identifier: 
                keyid:C5:57:DE:D0:3C:C4:BE:69:50:34:22:A3:C3:68:C8:7D:91:36:9C:53

    Signature Algorithm: sha256WithRSAEncryption
         22:0e:75:34:b5:9f:87:b1:5d:b5:f5:65:4c:88:db:0b:fc:a7:
         04:78:c1:cb:9c:ff:80:3c:fe:e3:d6:7a:4b:e0:0c:82:28:3a:
         7e:7b:bd:cc:3c:cb:d8:4f:8a:0a:80:df:81:a0:72:d1:ae:b6:
         39:fa:63:67:6e:e7:86:31:ef:44:76:b5:57:9d:cb:73:65:7b:
         06:0b:31:c2:6f:cd:82:e7:9a:bd:07:00:2a:cc:ef:c7:f7:3e:
         00:9d:57:b4:2c:74:72:8e:a0:ff:4b:b3:e1:e9:e7:84:2e:4b:
         ea:d4:52:98:3b:bb:79:3d:13:83:54:78:d3:d8:93:05:7d:fc:
         f0:15:a7:ea:a2:f4:b8:be:52:db:0d:a6:cb:3b:e5:68:25:e4:
         07:44:f8:36:5c:ba:f0:e2:a0:a2:cc:83:7c:9a:f8:4d:90:af:
         eb:5c:16:99:d2:87:18:a0:f3:2e:80:00:78:1d:3b:c5:89:cf:
         8f:e3:ad:99:93:9d:49:03:bf:29:76:0b:83:bd:0a:9c:54:a8:
         eb:6a:d6:f2:29:ce:42:3b:75:89:c3:b6:57:0f:b2:1a:86:4e:
         42:5c:ad:ec:e1:ef:74:4d:b0:80:14:ae:ab:01:04:9d:5b:e4:
         af:33:28:9f:8f:f4:da:32:94:cb:77:b7:c7:62:98:f7:e8:34:
         39:26:51:ee:dc:ca:0e:93:56:96:e5:97:fb:9b:54:a6:16:75:
         6c:b2:95:33:76:11:a0:2d:37:a1:d0:d3:3e:1a:ca:73:d8:19:
         79:d2:c2:4f:0c:3e:89:72:a7:41:45:3c:ab:7e:fa:5c:3e:40:
         15:92:28:fa:72:82:90:14:9a:cc:ed:64:c0:a5:45:1c:2f:13:
         4a:d1:74:4e:ae:1a:79:ee:db:50:d2:78:55:9e:a6:d1:0f:d4:
         97:49:7a:67:39:45:f8:15:87:eb:15:87:7e:03:26:6b:23:d0:
         4c:ab:75:90:d9:78:0a:27:65:6f:0e:e1:e5:10:12:6b:11:6d:
         85:dd:0c:51:c4:7e:86:4a:25:0b:e7:c4:0a:19:d1:26:ca:e3:
         51:22:9f:2d:6b:e8:10:60:1b:c1:6f:67:9e:75:f9:34:ca:6c:
         b3:f1:a1:97:e8:81:b4:d4:76:0a:2f:59:31:a4:e0:a4:4f:e0:
         62:44:81:c6:dd:7f:bb:af:07:78:86:39:6f:cb:f6:c7:35:cd:
         73:8a:df:27:bd:ac:59:a3:16:84:16:94:4a:26:84:7f:db:b8:
         6f:67:3c:d2:7a:51:c4:d0:6e:97:53:fd:8a:48:95:dc:30:dc:
         03:f4:2d:5d:44:75:1e:9d:4f:e9:c3:b7:76:61:23:b1:57:fc:
         81:33:6d:9f:c5:ae:ed:b3
-----BEGIN CERTIFICATE-----
MIIF2jCCA8KgAwIBAgIBAjANBgkqhkiG9w0BAQsFADBZMQswCQYDVQQGEwJBVTET
MBEGA1UECAwKU29tZS1TdGF0ZTEhMB8GA1UECgwYSW50ZXJuZXQgV2lkZ2l0cyBQ
dHkgTHRkMRIwEAYDVQQDDAlzZXJ2ZXIuY2EwHhcNMTkwNjE4MTQyNTI0WhcNMjAw
NjE3MTQyNTI0WjBWMQswCQYDVQQGEwJBVTETMBEGA1UECAwKU29tZS1TdGF0ZTEh
MB8GA1UECgwYSW50ZXJuZXQgV2lkZ2l0cyBQdHkgTHRkMQ8wDQYDVQQDDAZzZXJ2
ZXIwggIiMA0GCSqGSIb3DQEBAQUAA4ICDwAwggIKAoICAQCZ/PmS9usWeBn/pldQ
fHZ6RUBCW3IjZT1N/umY+IzQ+GENIDDjgWsaKb/zbKEkWQpHoNjuoF4llY8ADd6U
n7AnzZBVM+jsoLN+ocsPOk63ily0HoTBm+JTh8d56aCAMmuLpHh1OJXXewKUXGTD
dG9c4yjQbxOydvMR5PTgkNXp0k3QstTAH/uFBU+v2NkeMRHPyG+m/tEgVk5N5FYI
9pvkPPxYawE2+r6Yya5qCMy0uNsKHCpOAUJFHf/aX93UOFYxFG6CtPhHKgD5H6mr
zSLlwjc8HXbzDNZcOY+vfvSAIIf0XKs3pMre2VwtA61pT4zDOhIwp2vVFysv88mh
39qO3aYamYZgTvo7iCwmmKZhS/5DN+UehvnQHJRBkMygVDvcwAC3irXsJYzcH3bP
xjs7FIZjxUil7FYrCiNa7dACBCvUQsyR8E1b8+qoPjELrfKsxzwY2esCmZBflg/T
w3LBC+y1zsd+sgijpmkoCSEd38p2kYS7uYPG/04WclwyVq+2pNpNcgZNGFQ/Z3TM
2s6c1BevXIfVLAa8FjwD0V2v7t7ya/3bCBCqDAD8olkRDVFPWwl5xDP19QEFnSJc
JkvdRX6YpCudRpqJArQ+KnwTnknrDhO8z/e+417/eh4Dd0BaxeG9NzqbIEXwRAXL
wM1DIazyoVXOCtKZ9qVp8FlKjwIDAQABo4GvMIGsMDEGCCsGAQUFBwEBBCUwIzAh
BggrBgEFBQcwAYYVaHR0cDovLzEyNy4wLjAuMTo4ODg4MAkGA1UdEwQCMAAwLAYJ
YIZIAYb4QgENBB8WHU9wZW5TU0wgR2VuZXJhdGVkIENlcnRpZmljYXRlMB0GA1Ud
DgQWBBR/OYTvQM/yNtg83z6M20N6GpZxyzAfBgNVHSMEGDAWgBTFV97QPMS+aVA0
IqPDaMh9kTacUzANBgkqhkiG9w0BAQsFAAOCAgEAIg51NLWfh7FdtfVlTIjbC/yn
BHjBy5z/gDz+49Z6S+AMgig6fnu9zDzL2E+KCoDfgaBy0a62OfpjZ27nhjHvRHa1
V53Lc2V7Bgsxwm/NgueavQcAKszvx/c+AJ1XtCx0co6g/0uz4ennhC5L6tRSmDu7
eT0Tg1R409iTBX388BWn6qL0uL5S2w2myzvlaCXkB0T4Nly68OKgosyDfJr4TZCv
61wWmdKHGKDzLoAAeB07xYnPj+OtmZOdSQO/KXYLg70KnFSo62rW8inOQjt1icO2
Vw+yGoZOQlyt7OHvdE2wgBSuqwEEnVvkrzMon4/02jKUy3e3x2KY9+g0OSZR7tzK
DpNWluWX+5tUphZ1bLKVM3YRoC03odDTPhrKc9gZedLCTww+iXKnQUU8q376XD5A
FZIo+nKCkBSazO1kwKVFHC8TStF0Tq4aee7bUNJ4VZ6m0Q/Ul0l6ZzlF+BWH6xWH
fgMmayPQTKt1kNl4Cidlbw7h5RASaxFthd0MUcR+hkolC+fEChnRJsrjUSKfLWvo
EGAbwW9nnnX5NMpss/Ghl+iBtNR2Ci9ZMaTgpE/gYkSBxt1/u68HeIY5b8v2xzXN
c4rfJ72sWaMWhBaUSiaEf9u4b2c80npRxNBul1P9ikiV3DDcA/QtXUR1Hp1P6cO3
dmEjsVf8gTNtn8Wu7bM=
-----END CERTIFICATE-----
