Certificate:
    Data:
        Version: 3 (0x2)
        Serial Number: 3 (0x3)
    Signature Algorithm: sha256WithRSAEncryption
        Issuer: C=AU, ST=Some-State, O=Internet Widgits Pty Ltd, CN=server.ca
        Validity
            Not Before: Jun 20 10:12:03 2019 GMT
            Not After : Jun 19 10:12:03 2020 GMT
        Subject: C=AU, ST=Some-State, O=Internet Widgits Pty Ltd, CN=server2
        Subject Public Key Info:
            Public Key Algorithm: rsaEncryption
                Public-Key: (4096 bit)
                Modulus:
                    00:99:fc:f9:92:f6:eb:16:78:19:ff:a6:57:50:7c:
                    76:7a:45:40:42:5b:72:23:65:3d:4d:fe:e9:98:f8:
                    8c:d0:f8:61:0d:20:30:e3:81:6b:1a:29:bf:f3:6c:
                    a1:24:59:0a:47:a0:d8:ee:a0:5e:25:95:8f:00:0d:
                    de:94:9f:b0:27:cd:90:55:33:e8:ec:a0:b3:7e:a1:
                    cb:0f:3a:4e:b7:8a:5c:b4:1e:84:c1:9b:e2:53:87:
                    c7:79:e9:a0:80:32:6b:8b:a4:78:75:38:95:d7:7b:
                    02:94:5c:64:c3:74:6f:5c:e3:28:d0:6f:13:b2:76:
                    f3:11:e4:f4:e0:90:d5:e9:d2:4d:d0:b2:d4:c0:1f:
                    fb:85:05:4f:af:d8:d9:1e:31:11:cf:c8:6f:a6:fe:
                    d1:20:56:4e:4d:e4:56:08:f6:9b:e4:3c:fc:58:6b:
                    01:36:fa:be:98:c9:ae:6a:08:cc:b4:b8:db:0a:1c:
                    2a:4e:01:42:45:1d:ff:da:5f:dd:d4:38:56:31:14:
                    6e:82:b4:f8:47:2a:00:f9:1f:a9:ab:cd:22:e5:c2:
                    37:3c:1d:76:f3:0c:d6:5c:39:8f:af:7e:f4:80:20:
                    87:f4:5c:ab:37:a4:ca:de:d9:5c:2d:03:ad:69:4f:
                    8c:c3:3a:12:30:a7:6b:d5:17:2b:2f:f3:c9:a1:df:
                    da:8e:dd:a6:1a:99:86:60:4e:fa:3b:88:2c:26:98:
                    a6:61:4b:fe:43:37:e5:1e:86:f9:d0:1c:94:41:90:
                    cc:a0:54:3b:dc:c0:00:b7:8a:b5:ec:25:8c:dc:1f:
                    76:cf:c6:3b:3b:14:86:63:c5:48:a5:ec:56:2b:0a:
                    23:5a:ed:d0:02:04:2b:d4:42:cc:91:f0:4d:5b:f3:
                    ea:a8:3e:31:0b:ad:f2:ac:c7:3c:18:d9:eb:02:99:
                    90:5f:96:0f:d3:c3:72:c1:0b:ec:b5:ce:c7:7e:b2:
                    08:a3:a6:69:28:09:21:1d:df:ca:76:91:84:bb:b9:
                    83:c6:ff:4e:16:72:5c:32:56:af:b6:a4:da:4d:72:
                    06:4d:18:54:3f:67:74:cc:da:ce:9c:d4:17:af:5c:
                    87:d5:2c:06:bc:16:3c:03:d1:5d:af:ee:de:f2:6b:
                    fd:db:08:10:aa:0c:00:fc:a2:59:11:0d:51:4f:5b:
                    09:79:c4:33:f5:f5:01:05:9d:22:5c:26:4b:dd:45:
                    7e:98:a4:2b:9d:46:9a:89:02:b4:3e:2a:7c:13:9e:
                    49:eb:0e:13:bc:cf:f7:be:e3:5e:ff:7a:1e:03:77:
                    40:5a:c5:e1:bd:37:3a:9b:20:45:f0:44:05:cb:c0:
                    cd:43:21:ac:f2:a1:55:ce:0a:d2:99:f6:a5:69:f0:
                    59:4a:8f
                Exponent: 65537 (0x10001)
        X509v3 extensions:
            Authority Information Access: 
                OCSP - URI:http://127.0.0.1:8888

            X509v3 Basic Constraints: 
                CA:FALSE
            Netscape Comment: 
                OpenSSL Generated Certificate
            X509v3 Subject Key Identifier: 
                7F:39:84:EF:40:CF:F2:36:D8:3C:DF:3E:8C:DB:43:7A:1A:96:71:CB
            X509v3 Authority Key Identifier: 
                keyid:C5:57:DE:D0:3C:C4:BE:69:50:34:22:A3:C3:68:C8:7D:91:36:9C:53

    Signature Algorithm: sha256WithRSAEncryption
         2b:a5:83:d9:0c:80:04:a1:10:71:42:8d:7f:0d:3f:a4:01:6b:
         44:f9:a9:77:f4:0a:aa:e0:44:80:df:60:1a:da:7f:6a:d2:d4:
         40:31:9f:0d:3c:95:e7:02:82:6b:3a:b3:53:6d:ef:f0:0e:51:
         db:53:ae:4a:bb:84:d9:1a:4e:3e:99:b5:93:f2:f6:45:22:46:
         6d:b5:5e:b7:ad:97:18:dd:cf:f1:f9:02:71:e0:c1:e5:7b:8a:
         e3:47:9d:25:42:79:1b:f3:c2:31:6c:57:56:b6:7c:9c:f5:21:
         27:ea:5f:63:ef:1c:a0:d2:50:0f:4d:14:5e:db:5c:b8:1f:d7:
         57:11:06:3c:b0:b8:7b:6f:72:6e:53:5d:18:87:10:ae:ee:02:
         bc:a3:04:60:bd:d6:fe:a1:91:b0:ee:0b:6e:e9:80:46:23:43:
         ce:6e:f3:ba:a5:45:b5:fc:e0:cd:6d:76:43:00:28:5a:62:02:
         c6:23:08:9c:c8:b5:6a:16:1a:46:27:b6:79:1a:3e:ca:60:58:
         19:3d:31:5e:3c:c0:26:bc:92:9e:31:68:c0:b2:0b:1b:bf:df:
         eb:5b:d1:36:7d:92:ad:fe:15:45:2e:3a:88:0f:6c:1c:d2:7f:
         d2:8a:b6:67:1c:67:2d:b1:cd:54:dd:be:f5:fd:57:94:f7:0b:
         3d:4b:fc:58:fa:7f:db:ef:98:5a:21:7d:d6:74:35:85:b0:e7:
         da:91:21:bf:ac:3e:41:d1:e3:b9:ea:f7:0c:cc:6c:c5:82:d7:
         e5:d7:d4:47:a3:17:bc:5c:1c:32:24:68:9a:6d:e0:ee:bd:b3:
         34:c7:33:8c:5c:e6:e1:f8:0e:ed:8f:38:94:6a:3f:e1:fe:8e:
         74:c4:76:39:ad:5a:92:05:25:c2:e4:91:92:07:d8:54:b3:ce:
         45:94:e5:84:ec:fb:2a:b6:5b:72:d7:be:a0:ae:4e:61:b5:69:
         4f:04:fa:40:a3:56:7b:ea:83:d2:ca:08:f3:18:ae:37:82:4d:
         b2:3d:7f:4b:cc:e7:31:af:64:2a:48:c2:a4:58:d0:47:57:6c:
         db:73:28:d0:06:70:7c:7e:c7:bf:8b:74:ee:fc:ca:2a:f8:34:
         87:d9:fd:39:c1:83:9d:92:05:98:5f:c9:ea:47:e3:5a:de:3d:
         ff:0b:93:9b:2a:b1:f4:2e:66:8c:04:3d:2d:4f:94:ce:11:86:
         27:b3:1d:5b:f9:7e:d2:19:0b:37:e2:86:92:8c:16:78:21:31:
         f3:54:72:a0:89:ac:ce:9a:fb:19:3d:28:4f:fa:90:1c:1a:9a:
         4b:d4:22:3f:6b:d3:04:30:d7:d9:71:47:55:ba:69:28:2c:31:
         bd:53:8f:1a:69:96:a2:5a
-----BEGIN CERTIFICATE-----
MIIF2zCCA8OgAwIBAgIBAzANBgkqhkiG9w0BAQsFADBZMQswCQYDVQQGEwJBVTET
MBEGA1UECAwKU29tZS1TdGF0ZTEhMB8GA1UECgwYSW50ZXJuZXQgV2lkZ2l0cyBQ
dHkgTHRkMRIwEAYDVQQDDAlzZXJ2ZXIuY2EwHhcNMTkwNjIwMTAxMjAzWhcNMjAw
NjE5MTAxMjAzWjBXMQswCQYDVQQGEwJBVTETMBEGA1UECAwKU29tZS1TdGF0ZTEh
MB8GA1UECgwYSW50ZXJuZXQgV2lkZ2l0cyBQdHkgTHRkMRAwDgYDVQQDDAdzZXJ2
ZXIyMIICIjANBgkqhkiG9w0BAQEFAAOCAg8AMIICCgKCAgEAmfz5kvbrFngZ/6ZX
UHx2ekVAQltyI2U9Tf7pmPiM0PhhDSAw44FrGim/82yhJFkKR6DY7qBeJZWPAA3e
lJ+wJ82QVTPo7KCzfqHLDzpOt4pctB6EwZviU4fHeemggDJri6R4dTiV13sClFxk
w3RvXOMo0G8TsnbzEeT04JDV6dJN0LLUwB/7hQVPr9jZHjERz8hvpv7RIFZOTeRW
CPab5Dz8WGsBNvq+mMmuagjMtLjbChwqTgFCRR3/2l/d1DhWMRRugrT4RyoA+R+p
q80i5cI3PB128wzWXDmPr370gCCH9FyrN6TK3tlcLQOtaU+MwzoSMKdr1RcrL/PJ
od/ajt2mGpmGYE76O4gsJpimYUv+QzflHob50ByUQZDMoFQ73MAAt4q17CWM3B92
z8Y7OxSGY8VIpexWKwojWu3QAgQr1ELMkfBNW/PqqD4xC63yrMc8GNnrApmQX5YP
08NywQvstc7HfrIIo6ZpKAkhHd/KdpGEu7mDxv9OFnJcMlavtqTaTXIGTRhUP2d0
zNrOnNQXr1yH1SwGvBY8A9Fdr+7e8mv92wgQqgwA/KJZEQ1RT1sJecQz9fUBBZ0i
XCZL3UV+mKQrnUaaiQK0Pip8E55J6w4TvM/3vuNe/3oeA3dAWsXhvTc6myBF8EQF
y8DNQyGs8qFVzgrSmfalafBZSo8CAwEAAaOBrzCBrDAxBggrBgEFBQcBAQQlMCMw
IQYIKwYBBQUHMAGGFWh0dHA6Ly8xMjcuMC4wLjE6ODg4ODAJBgNVHRMEAjAAMCwG
CWCGSAGG+EIBDQQfFh1PcGVuU1NMIEdlbmVyYXRlZCBDZXJ0aWZpY2F0ZTAdBgNV
HQ4EFgQUfzmE70DP8jbYPN8+jNtDehqWccswHwYDVR0jBBgwFoAUxVfe0DzEvmlQ
NCKjw2jIfZE2nFMwDQYJKoZIhvcNAQELBQADggIBACulg9kMgAShEHFCjX8NP6QB
a0T5qXf0CqrgRIDfYBraf2rS1EAxnw08lecCgms6s1Nt7/AOUdtTrkq7hNkaTj6Z
tZPy9kUiRm21Xretlxjdz/H5AnHgweV7iuNHnSVCeRvzwjFsV1a2fJz1ISfqX2Pv
HKDSUA9NFF7bXLgf11cRBjywuHtvcm5TXRiHEK7uAryjBGC91v6hkbDuC27pgEYj
Q85u87qlRbX84M1tdkMAKFpiAsYjCJzItWoWGkYntnkaPspgWBk9MV48wCa8kp4x
aMCyCxu/3+tb0TZ9kq3+FUUuOogPbBzSf9KKtmccZy2xzVTdvvX9V5T3Cz1L/Fj6
f9vvmFohfdZ0NYWw59qRIb+sPkHR47nq9wzMbMWC1+XX1EejF7xcHDIkaJpt4O69
szTHM4xc5uH4Du2POJRqP+H+jnTEdjmtWpIFJcLkkZIH2FSzzkWU5YTs+yq2W3LX
vqCuTmG1aU8E+kCjVnvqg9LKCPMYrjeCTbI9f0vM5zGvZCpIwqRY0EdXbNtzKNAG
cHx+x7+LdO78yir4NIfZ/TnBg52SBZhfyepH41rePf8Lk5sqsfQuZowEPS1PlM4R
hiezHVv5ftIZCzfihpKMFnghMfNUcqCJrM6a+xk9KE/6kBwamkvUIj9r0wQw19lx
R1W6aSgsMb1TjxpplqJa
-----END CERTIFICATE-----
