Certificate:
    Data:
        Version: 3 (0x2)
        Serial Number: 5 (0x5)
        Signature Algorithm: sha256WithRSAEncryption
        Issuer: C=AU, ST=Some-State, O=Internet Widgits Pty Ltd, CN=root_ca
        Validity
            Not Before: Jan  6 11:43:11 2021 GMT
            Not After : Dec 13 11:43:11 2120 GMT
        Subject: C=AU, ST=Some-State, O=Internet Widgits Pty Ltd, CN=client
        Subject Public Key Info:
            Public Key Algorithm: rsaEncryption
                RSA Public-Key: (2048 bit)
                Modulus:
                    00:b1:e9:49:55:f5:c0:8a:82:d1:38:d3:1b:11:dc:
                    f2:c3:0d:4a:31:c5:0c:db:1f:1b:6a:33:a8:13:2f:
                    1b:a6:a6:cb:d4:13:1a:1b:b3:c4:3a:30:8d:70:69:
                    ac:3e:78:ef:a8:11:69:e7:a9:9d:ba:c1:31:76:be:
                    13:e8:9c:16:fa:aa:08:27:d3:73:ba:10:fb:9d:b9:
                    17:95:41:39:92:67:dc:d5:26:ab:f6:5d:76:7d:e9:
                    0f:d8:58:6f:71:d8:22:fe:fe:b3:31:4c:3b:fc:99:
                    0b:61:f3:0a:f5:ec:e9:33:b3:75:81:6d:3b:9a:50:
                    93:03:9f:c3:67:01:b9:6c:38:68:81:c1:b8:55:2f:
                    26:52:da:52:fc:e0:c8:7f:4b:7b:92:d5:08:db:bc:
                    56:96:54:0c:d9:b4:f5:25:46:ab:b1:9f:a9:b4:f5:
                    84:70:ac:bd:a7:76:30:00:ad:38:df:53:11:3e:26:
                    20:3d:32:77:12:3d:ba:ce:c4:2b:63:2e:21:e6:a2:
                    ad:3b:3a:71:cc:87:1c:5d:d6:4f:a7:72:66:fd:c8:
                    d2:86:c2:1e:7f:50:5a:b3:7f:94:ea:42:02:af:ff:
                    8f:ed:17:f1:17:bc:85:95:06:70:90:e2:b3:d0:34:
                    52:6f:c2:15:77:1f:32:f3:67:b3:7e:80:3e:99:09:
                    c8:9b
                Exponent: 65537 (0x10001)
        X509v3 extensions:
            X509v3 Basic Constraints: 
                CA:FALSE
            Netscape Comment: 
                OpenSSL Generated Server Certificate
            X509v3 Subject Key Identifier: 
                10:E8:00:AF:9A:32:D9:53:44:22:35:20:C4:83:39:80:DD:79:26:CE
            X509v3 Authority Key Identifier: 
                keyid:EE:74:F0:D2:8C:52:23:33:C4:5F:41:49:D9:01:11:44:B8:CD:30:CB
                DirName:/C=AU/ST=Some-State/O=Internet Widgits Pty Ltd/CN=root_ca
                serial:17:C8:5C:F4:A6:F7:B0:C9:E7:7D:20:15:10:2C:7F:A1:92:F8:2E:55

            Authority Information Access: 
                OCSP - URI:http://127.0.0.1:8888

    Signature Algorithm: sha256WithRSAEncryption
         46:0e:fe:b0:fe:f9:ff:f7:dc:9d:8c:71:8d:2a:bb:90:5b:83:
         93:c9:5f:16:f7:72:e0:54:e1:f0:6f:f4:cc:ee:3d:a7:4a:71:
         f2:4c:a5:49:ec:66:26:eb:d4:39:39:1c:ff:f9:8a:28:29:1d:
         af:17:d9:42:34:71:d2:d0:ad:64:ca:02:b3:d9:b3:cb:1b:f9:
         95:e4:12:32:ac:e8:88:34:07:98:fd:ea:0b:9d:8c:f6:25:00:
         30:71:b6:d3:1f:1f:0b:e4:13:bf:8b:11:83:93:6d:c7:16:c3:
         2f:90:9c:2c:c8:72:b2:50:9a:a6:51:c4:ac:93:fd:12:34:bf:
         3f:47:09:6c:c7:58:e0:d9:8e:8f:c3:1d:93:ec:8a:2a:ef:07:
         cf:b4:34:bf:c5:4f:3c:dd:02:04:cd:fa:d3:bf:e5:46:ab:5f:
         21:6f:f0:ad:43:c9:3a:f9:27:66:d4:7a:ab:05:a9:7f:1a:6c:
         96:b6:05:33:b5:da:96:4f:8c:04:bc:57:a7:dc:e9:18:b8:99:
         b2:6c:a3:68:49:7d:c3:9e:6d:7a:62:65:7c:9a:b5:03:13:c2:
         0c:73:28:d5:e2:8f:f8:4f:92:43:57:61:f2:8d:08:c7:f5:35:
         ce:77:84:8e:90:8c:b1:43:22:24:14:20:6b:f8:0e:13:3d:6e:
         f0:18:0f:f8:cb:22:1e:93:b2:3b:96:42:d9:da:39:7d:3e:c7:
         91:ab:99:f5:bd:82:f8:f9:cb:c9:01:bb:b9:8d:1a:ce:37:02:
         b4:ab:1c:21:2d:89:d8:8b:6e:0e:c3:fc:51:76:fe:06:f5:76:
         00:61:18:b8:5d:0d:40:22:67:e4:5b:2b:e0:59:9a:0a:c9:c8:
         56:f8:f6:fe:3c:7e:b1:a8:dc:48:e6:f9:c2:67:ed:bb:f7:71:
         a4:45:8c:12:29:48:e0:3c:bd:e4:46:6a:0c:76:60:6c:5b:92:
         91:31:61:0d:55:5c:ad:0b:29:14:c7:0b:06:9a:74:35:6d:22:
         0e:40:e3:cd:84:88:4c:ad:5e:8f:d0:89:a4:6c:00:d8:eb:13:
         95:37:25:14:ef:4a:c0:e4:c2:98:d3:9b:45:48:d1:04:93:b5:
         c1:e6:36:e1:7f:74:1f:8e:a2:d1:4e:2e:79:f0:2b:b6:a4:e5:
         74:ca:29:01:d5:60:13:fc:99:30:3a:96:43:cf:1d:c6:9a:4b:
         65:e3:fc:e0:bf:b3:18:10:b0:25:2e:77:23:a4:42:2f:ae:1e:
         d0:82:20:c3:e6:7a:76:24:8f:37:43:b3:25:61:44:9d:ea:0b:
         6d:ca:08:7c:f5:73:db:9b:66:58:66:e5:11:60:bf:9c:fc:1e:
         c8:ad:be:91:67:56:c7:de
-----BEGIN CERTIFICATE-----
MIIFWTCCA0GgAwIBAgIBBTANBgkqhkiG9w0BAQsFADBXMQswCQYDVQQGEwJBVTET
MBEGA1UECAwKU29tZS1TdGF0ZTEhMB8GA1UECgwYSW50ZXJuZXQgV2lkZ2l0cyBQ
dHkgTHRkMRAwDgYDVQQDDAdyb290X2NhMCAXDTIxMDEwNjExNDMxMVoYDzIxMjAx
MjEzMTE0MzExWjBWMQswCQYDVQQGEwJBVTETMBEGA1UECAwKU29tZS1TdGF0ZTEh
MB8GA1UECgwYSW50ZXJuZXQgV2lkZ2l0cyBQdHkgTHRkMQ8wDQYDVQQDDAZjbGll
bnQwggEiMA0GCSqGSIb3DQEBAQUAA4IBDwAwggEKAoIBAQCx6UlV9cCKgtE40xsR
3PLDDUoxxQzbHxtqM6gTLxumpsvUExobs8Q6MI1waaw+eO+oEWnnqZ26wTF2vhPo
nBb6qggn03O6EPuduReVQTmSZ9zVJqv2XXZ96Q/YWG9x2CL+/rMxTDv8mQth8wr1
7Okzs3WBbTuaUJMDn8NnAblsOGiBwbhVLyZS2lL84Mh/S3uS1QjbvFaWVAzZtPUl
Rquxn6m09YRwrL2ndjAArTjfUxE+JiA9MncSPbrOxCtjLiHmoq07OnHMhxxd1k+n
cmb9yNKGwh5/UFqzf5TqQgKv/4/tF/EXvIWVBnCQ4rPQNFJvwhV3HzLzZ7N+gD6Z
CcibAgMBAAGjggEtMIIBKTAJBgNVHRMEAjAAMDMGCWCGSAGG+EIBDQQmFiRPcGVu
U1NMIEdlbmVyYXRlZCBTZXJ2ZXIgQ2VydGlmaWNhdGUwHQYDVR0OBBYEFBDoAK+a
MtlTRCI1IMSDOYDdeSbOMIGUBgNVHSMEgYwwgYmAFO508NKMUiMzxF9BSdkBEUS4
zTDLoVukWTBXMQswCQYDVQQGEwJBVTETMBEGA1UECAwKU29tZS1TdGF0ZTEhMB8G
A1UECgwYSW50ZXJuZXQgV2lkZ2l0cyBQdHkgTHRkMRAwDgYDVQQDDAdyb290X2Nh
ghQXyFz0pvewyed9IBUQLH+hkvguVTAxBggrBgEFBQcBAQQlMCMwIQYIKwYBBQUH
MAGGFWh0dHA6Ly8xMjcuMC4wLjE6ODg4ODANBgkqhkiG9w0BAQsFAAOCAgEARg7+
sP75//fcnYxxjSq7kFuDk8lfFvdy4FTh8G/0zO49p0px8kylSexmJuvUOTkc//mK
KCkdrxfZQjRx0tCtZMoCs9mzyxv5leQSMqzoiDQHmP3qC52M9iUAMHG20x8fC+QT
v4sRg5NtxxbDL5CcLMhyslCaplHErJP9EjS/P0cJbMdY4NmOj8Mdk+yKKu8Hz7Q0
v8VPPN0CBM3607/lRqtfIW/wrUPJOvknZtR6qwWpfxpslrYFM7Xalk+MBLxXp9zp
GLiZsmyjaEl9w55temJlfJq1AxPCDHMo1eKP+E+SQ1dh8o0Ix/U1zneEjpCMsUMi
JBQga/gOEz1u8BgP+MsiHpOyO5ZC2do5fT7HkauZ9b2C+PnLyQG7uY0azjcCtKsc
IS2J2ItuDsP8UXb+BvV2AGEYuF0NQCJn5Fsr4FmaCsnIVvj2/jx+sajcSOb5wmft
u/dxpEWMEilI4Dy95EZqDHZgbFuSkTFhDVVcrQspFMcLBpp0NW0iDkDjzYSITK1e
j9CJpGwA2OsTlTclFO9KwOTCmNObRUjRBJO1weY24X90H46i0U4uefArtqTldMop
AdVgE/yZMDqWQ88dxppLZeP84L+zGBCwJS53I6RCL64e0IIgw+Z6diSPN0OzJWFE
neoLbcoIfPVz25tmWGblEWC/nPweyK2+kWdWx94=
-----END CERTIFICATE-----
