Certificate:
    Data:
        Version: 3 (0x2)
        Serial Number:
            5e:fd:08:90:60:5d:2d:ce:b1:3c:97:5a:9c:98:c3:76:3f:42:6a:6f
        Signature Algorithm: sha512WithRSAEncryption
        Issuer: C = AU, ST = Some-State, O = Internet Widgits Pty Ltd, CN = root_ca
        Validity
            Not Before: Nov 29 10:20:40 2023 GMT
            Not After : Nov 30 10:20:40 2023 GMT
        Subject: C = AU, ST = Some-State, O = Internet Widgits Pty Ltd, CN = expired_server
        Subject Public Key Info:
            Public Key Algorithm: rsaEncryption
                RSA Public-Key: (2048 bit)
                Modulus:
                    00:ae:2b:77:35:11:58:73:2c:e6:dd:42:6d:49:6b:
                    fe:3e:a2:8d:4c:7b:da:78:7d:cd:78:d7:5f:76:2d:
                    8b:2d:1c:77:5d:8e:12:ed:44:c7:86:b9:6d:fa:d5:
                    10:a9:18:18:58:fe:2f:c2:25:8b:30:58:d8:9b:0c:
                    1a:8e:19:29:de:aa:43:7a:ac:3e:75:7e:33:cb:2d:
                    a7:81:81:ec:05:01:4d:02:dd:dc:1d:37:8a:f6:61:
                    94:61:8c:90:ba:86:ac:69:f2:03:98:36:e9:b6:8b:
                    89:6b:37:53:ab:a8:ac:73:d9:d7:44:21:1e:ae:a6:
                    6f:fb:4d:ff:37:94:2c:5d:c0:d2:ec:0d:57:75:d7:
                    58:c3:eb:7c:86:9b:9b:f4:00:b8:7f:33:20:0d:14:
                    d6:27:73:64:fe:9b:b1:fa:dd:55:f1:35:d8:3a:e4:
                    6a:9e:73:2e:7c:e3:46:4d:56:19:65:ba:bf:b5:9c:
                    7b:fb:9a:01:76:8a:5f:fb:e2:61:43:21:f6:f8:03:
                    04:62:93:d2:0a:89:3b:e1:c6:82:6b:60:62:12:cf:
                    44:9e:b8:e9:a9:30:d3:e5:b5:4c:58:db:93:b9:d0:
                    d1:7a:67:c9:d5:1e:58:1f:04:1f:b7:0f:74:45:94:
                    12:fd:81:aa:5c:94:09:1e:da:e3:09:5e:a6:5a:85:
                    53:3b
                Exponent: 65537 (0x10001)
        X509v3 extensions:
            X509v3 Authority Key Identifier:
                keyid:EE:74:F0:D2:8C:52:23:33:C4:5F:41:49:D9:01:11:44:B8:CD:30:CB

            X509v3 Basic Constraints:
                CA:FALSE
            Authority Information Access:
                OCSP - URI:http://127.0.0.1:8888

    Signature Algorithm: sha512WithRSAEncryption
         67:36:c2:bd:e2:e0:38:48:70:02:d1:93:96:9a:fb:43:8d:2d:
         4d:b7:0b:16:b7:b1:35:fe:fc:8b:29:58:e2:57:af:bc:ca:7c:
         a0:57:0a:ee:95:ce:f0:43:17:ba:7d:d5:52:6f:4f:39:4e:f3:
         80:9f:b7:6e:dd:f5:3b:de:41:79:7f:05:73:ff:54:01:f7:f1:
         71:83:2b:e6:d8:71:d4:79:4f:3c:59:8e:60:9e:c4:bf:35:1f:
         a2:82:81:69:83:29:c8:65:0d:4e:30:a3:a3:a5:1f:66:a3:fa:
         2d:5e:35:11:84:1a:ed:ec:4b:2b:16:c7:78:62:f9:12:2c:17:
         f0:8e:47:96:15:7f:e8:03:8f:20:c0:3a:88:d0:3b:4e:7f:5f:
         cc:7b:65:3b:73:6c:a1:8d:7b:2e:8e:7b:a9:9e:e5:28:6b:98:
         a1:93:6d:ec:5f:e2:70:0f:c6:56:04:f2:1f:64:08:61:5d:b5:
         e2:8f:cb:11:ad:44:e8:f1:c5:e2:76:1d:0f:59:33:70:1c:52:
         10:a8:19:3c:82:5d:6a:cf:e3:cf:ac:d6:7e:63:ee:5d:01:e5:
         d7:be:8d:2e:e9:77:ea:6f:9f:08:3d:27:7a:c5:2f:02:1f:13:
         80:ee:b6:36:97:99:ff:6b:b4:d6:b4:51:7b:0d:e0:e4:ff:28:
         ce:43:17:51:45:12:c7:50:43:fb:13:11:af:ad:e0:d8:a7:d5:
         28:41:2d:df:c7:1e:a7:4c:62:4e:7b:9b:3e:ba:80:9b:cb:8c:
         8e:e0:d1:06:02:5d:0d:28:e8:bd:2b:06:7d:6f:4a:3c:eb:12:
         b3:6d:c5:83:02:5f:ae:47:c3:9c:d8:a1:1a:eb:1c:bb:04:98:
         7c:86:59:3d:72:96:0e:cc:ad:b4:9e:f7:52:27:08:3b:86:d4:
         45:45:60:b5:ab:2c:ae:df:07:50:6b:fe:b5:7d:d3:c8:e0:91:
         52:7f:41:61:f9:75:3c:c6:c6:8c:fb:c9:d8:d7:52:3d:3e:33:
         a6:2c:5e:85:a3:0b:ee:b3:9f:85:97:de:ff:7b:87:8e:1f:8b:
         8f:b0:18:b5:ab:73:35:d4:72:41:4b:0b:9a:ea:aa:a3:49:e7:
         48:08:07:dd:c9:43:53:0e:3f:da:c3:e6:c9:72:23:7c:7c:28:
         05:dc:97:b9:12:bf:55:d2:46:15:6b:4c:20:77:66:20:a2:18:
         35:07:41:35:9e:e3:92:d1:b4:0d:f1:6a:64:06:92:cb:06:34:
         68:7b:9a:fe:e2:17:87:44:cc:9b:3d:45:c5:62:6a:76:10:05:
         82:34:e8:5d:12:19:6f:63:e7:e6:f4:12:37:32:d1:5f:bb:ee:
         c0:31:af:99:d2:fc:32:cf
-----BEGIN CERTIFICATE-----
MIIEpDCCAoygAwIBAgIUXv0IkGBdLc6xPJdanJjDdj9Cam8wDQYJKoZIhvcNAQEN
BQAwVzELMAkGA1UEBhMCQVUxEzARBgNVBAgMClNvbWUtU3RhdGUxITAfBgNVBAoM
GEludGVybmV0IFdpZGdpdHMgUHR5IEx0ZDEQMA4GA1UEAwwHcm9vdF9jYTAeFw0y
MzExMjkxMDIwNDBaFw0yMzExMzAxMDIwNDBaMF4xCzAJBgNVBAYTAkFVMRMwEQYD
VQQIDApTb21lLVN0YXRlMSEwHwYDVQQKDBhJbnRlcm5ldCBXaWRnaXRzIFB0eSBM
dGQxFzAVBgNVBAMMDmV4cGlyZWRfc2VydmVyMIIBIjANBgkqhkiG9w0BAQEFAAOC
AQ8AMIIBCgKCAQEArit3NRFYcyzm3UJtSWv+PqKNTHvaeH3NeNdfdi2LLRx3XY4S
7UTHhrlt+tUQqRgYWP4vwiWLMFjYmwwajhkp3qpDeqw+dX4zyy2ngYHsBQFNAt3c
HTeK9mGUYYyQuoasafIDmDbptouJazdTq6isc9nXRCEerqZv+03/N5QsXcDS7A1X
dddYw+t8hpub9AC4fzMgDRTWJ3Nk/pux+t1V8TXYOuRqnnMufONGTVYZZbq/tZx7
+5oBdopf++JhQyH2+AMEYpPSCok74caCa2BiEs9EnrjpqTDT5bVMWNuTudDRemfJ
1R5YHwQftw90RZQS/YGqXJQJHtrjCV6mWoVTOwIDAQABo2EwXzAfBgNVHSMEGDAW
gBTudPDSjFIjM8RfQUnZARFEuM0wyzAJBgNVHRMEAjAAMDEGCCsGAQUFBwEBBCUw
IzAhBggrBgEFBQcwAYYVaHR0cDovLzEyNy4wLjAuMTo4ODg4MA0GCSqGSIb3DQEB
DQUAA4ICAQBnNsK94uA4SHAC0ZOWmvtDjS1NtwsWt7E1/vyLKVjiV6+8ynygVwru
lc7wQxe6fdVSb085TvOAn7du3fU73kF5fwVz/1QB9/Fxgyvm2HHUeU88WY5gnsS/
NR+igoFpgynIZQ1OMKOjpR9mo/otXjURhBrt7EsrFsd4YvkSLBfwjkeWFX/oA48g
wDqI0DtOf1/Me2U7c2yhjXsujnupnuUoa5ihk23sX+JwD8ZWBPIfZAhhXbXij8sR
rUTo8cXidh0PWTNwHFIQqBk8gl1qz+PPrNZ+Y+5dAeXXvo0u6Xfqb58IPSd6xS8C
HxOA7rY2l5n/a7TWtFF7DeDk/yjOQxdRRRLHUEP7ExGvreDYp9UoQS3fxx6nTGJO
e5s+uoCby4yO4NEGAl0NKOi9KwZ9b0o86xKzbcWDAl+uR8Oc2KEa6xy7BJh8hlk9
cpYOzK20nvdSJwg7htRFRWC1qyyu3wdQa/61fdPI4JFSf0Fh+XU8xsaM+8nY11I9
PjOmLF6Fowvus5+Fl97/e4eOH4uPsBi1q3M11HJBSwua6qqjSedICAfdyUNTDj/a
w+bJciN8fCgF3Je5Er9V0kYVa0wgd2Ygohg1B0E1nuOS0bQN8WpkBpLLBjRoe5r+
4heHRMybPUXFYmp2EAWCNOhdEhlvY+fm9BI3MtFfu+7AMa+Z0vwyzw==
-----END CERTIFICATE-----
