Certificate:
    Data:
        Version: 3 (0x2)
        Serial Number: 8 (0x8)
        Signature Algorithm: sha256WithRSAEncryption
        Issuer: C=AU, ST=Some-State, O=Internet Widgits Pty Ltd, CN=root_ca
        Validity
            Not Before: Feb 10 10:07:53 2021 GMT
            Not After : Feb  8 10:07:53 2031 GMT
        Subject: C=AU, ST=Some-State, O=Internet Widgits Pty Ltd, CN=no_authInfo_server
        Subject Public Key Info:
            Public Key Algorithm: rsaEncryption
                RSA Public-Key: (2048 bit)
                Modulus:
                    00:a4:f5:cd:5f:bf:12:2a:d6:14:d5:92:fb:7d:0b:
                    43:e0:92:06:6c:9f:e9:ab:1b:d6:a0:9f:37:60:ad:
                    1b:3c:d5:c7:86:3d:ca:b7:b8:29:49:e5:81:ca:f3:
                    d5:de:74:aa:be:60:b1:14:3b:50:e9:81:e7:b8:96:
                    40:a8:e6:d6:92:e2:b0:53:30:6a:e6:72:12:55:3f:
                    f5:83:89:ee:95:c9:c6:d4:b0:6a:87:f7:03:6a:d0:
                    40:15:97:9f:3b:72:4f:47:d7:e9:0e:f2:b8:79:3c:
                    2c:3c:fe:06:0a:e4:e5:ba:1d:62:52:e7:ae:70:92:
                    97:a6:82:09:21:18:3e:85:b5:91:b4:0c:29:cc:31:
                    d2:5c:62:98:ce:93:bd:49:db:0f:03:da:5d:fd:00:
                    6e:66:d2:3d:d0:47:26:71:aa:f3:6e:2b:99:4b:a6:
                    eb:72:e9:46:b9:62:a2:eb:c6:c0:0d:9d:66:99:c5:
                    f1:72:37:61:2a:17:8b:ef:c5:b0:d2:b4:a6:df:3a:
                    45:02:9b:c2:e7:f5:e5:5e:05:29:1b:a4:e6:b0:ef:
                    28:6f:76:62:20:63:35:e9:24:84:ff:31:97:50:0e:
                    eb:3c:86:b1:ec:9f:68:f2:cf:22:4c:d1:8d:39:cb:
                    b7:32:62:50:30:2e:ed:7b:67:16:ea:f7:c1:f6:c8:
                    e8:53
                Exponent: 65537 (0x10001)
        X509v3 extensions:
            X509v3 Basic Constraints: 
                CA:FALSE
            Netscape Comment: 
                OpenSSL Generated Server Certificate
            X509v3 Subject Key Identifier: 
                D4:A0:AF:C2:00:B6:B9:28:93:9F:D0:B8:F1:9E:0A:1C:92:B5:D2:8E
            X509v3 Authority Key Identifier: 
                keyid:EE:74:F0:D2:8C:52:23:33:C4:5F:41:49:D9:01:11:44:B8:CD:30:CB
                DirName:/C=AU/ST=Some-State/O=Internet Widgits Pty Ltd/CN=root_ca
                serial:17:C8:5C:F4:A6:F7:B0:C9:E7:7D:20:15:10:2C:7F:A1:92:F8:2E:55

    Signature Algorithm: sha256WithRSAEncryption
         4e:df:c1:66:58:bb:29:0e:ee:31:45:fb:cf:9e:85:98:03:b8:
         64:bb:17:93:92:b9:c2:51:4f:06:fa:7b:a0:45:6c:bb:bb:bf:
         e4:57:3d:5d:d2:90:69:58:3b:92:84:ab:9b:6a:f1:fe:11:50:
         d7:39:ed:96:bc:7b:5d:a2:ef:60:50:96:5f:e2:b9:a0:74:44:
         5d:d6:25:90:d7:15:f5:93:df:03:46:a3:71:be:ec:cb:18:ee:
         57:40:0b:1b:63:4b:bf:25:06:55:6d:54:d9:18:29:4d:0d:ef:
         b4:7a:00:96:f9:2e:b8:b3:ed:b2:e7:90:a0:d8:4a:e9:b0:2d:
         b7:3a:75:88:c9:d9:a0:40:7e:d1:25:67:eb:5d:ea:73:4a:91:
         69:f9:48:fa:e5:e2:5b:f2:04:3b:0c:6d:e5:f1:a7:c8:ea:dc:
         ec:57:56:26:d9:2b:c2:77:c2:4d:2f:c4:70:c7:99:8c:8c:c6:
         a9:35:64:f0:f5:c8:69:14:07:36:ca:4a:3e:69:87:6c:d4:33:
         3d:75:5f:86:31:d5:ec:23:6b:aa:d3:7e:0c:b3:70:3f:bc:d0:
         69:d5:e0:62:64:fa:35:93:a4:08:7f:cb:7e:b5:29:a9:26:88:
         50:97:27:00:be:55:9f:75:fd:2a:cb:e9:0e:fb:d1:99:f4:ae:
         5e:e8:b3:3f:36:3c:53:03:de:e4:f0:08:8c:e6:75:5e:7c:4d:
         f8:bc:a9:55:89:02:7d:7f:43:24:f9:5c:e7:e0:01:32:7a:9a:
         3b:25:1b:c0:46:3d:8e:01:28:e3:fb:23:6c:b5:09:88:2b:3a:
         58:44:ea:49:e6:31:ad:79:96:2f:7c:47:e0:ca:ac:17:9e:51:
         bf:da:34:32:6d:52:e7:8d:0b:c9:e0:9b:e3:8b:95:33:eb:14:
         06:30:1a:97:2e:05:7c:07:eb:2f:fb:ac:76:98:59:00:63:25:
         86:53:40:cc:58:57:2a:b9:e1:bb:68:ae:b5:ec:87:ca:85:7f:
         e6:13:fd:5b:2c:7d:89:21:ab:92:d0:6b:d1:ca:e1:a1:57:6e:
         30:a2:40:5f:09:b0:0a:3f:f7:d0:8e:29:5a:19:80:68:b9:54:
         34:45:0a:61:20:51:1f:71:ae:81:a9:00:57:c1:75:30:5a:1d:
         59:c2:9a:d9:59:91:f8:68:f2:ad:4f:30:9d:4b:f8:e6:0b:28:
         bd:c5:63:c9:38:1d:67:ba:00:74:ea:01:f0:cd:be:6c:ca:11:
         74:7d:67:62:61:9a:08:63:35:e4:d7:24:6b:0a:cc:71:d7:b2:
         c9:5a:ef:c0:95:78:95:ae:07:b0:9d:ba:9a:bd:f9:58:e5:53:
         4c:64:1a:c8:2b:f0:be:15
-----BEGIN CERTIFICATE-----
MIIFLjCCAxagAwIBAgIBCDANBgkqhkiG9w0BAQsFADBXMQswCQYDVQQGEwJBVTET
MBEGA1UECAwKU29tZS1TdGF0ZTEhMB8GA1UECgwYSW50ZXJuZXQgV2lkZ2l0cyBQ
dHkgTHRkMRAwDgYDVQQDDAdyb290X2NhMB4XDTIxMDIxMDEwMDc1M1oXDTMxMDIw
ODEwMDc1M1owYjELMAkGA1UEBhMCQVUxEzARBgNVBAgMClNvbWUtU3RhdGUxITAf
BgNVBAoMGEludGVybmV0IFdpZGdpdHMgUHR5IEx0ZDEbMBkGA1UEAwwSbm9fYXV0
aEluZm9fc2VydmVyMIIBIjANBgkqhkiG9w0BAQEFAAOCAQ8AMIIBCgKCAQEApPXN
X78SKtYU1ZL7fQtD4JIGbJ/pqxvWoJ83YK0bPNXHhj3Kt7gpSeWByvPV3nSqvmCx
FDtQ6YHnuJZAqObWkuKwUzBq5nISVT/1g4nulcnG1LBqh/cDatBAFZefO3JPR9fp
DvK4eTwsPP4GCuTluh1iUueucJKXpoIJIRg+hbWRtAwpzDHSXGKYzpO9SdsPA9pd
/QBuZtI90EcmcarzbiuZS6brculGuWKi68bADZ1mmcXxcjdhKheL78Ww0rSm3zpF
ApvC5/XlXgUpG6TmsO8ob3ZiIGM16SSE/zGXUA7rPIax7J9o8s8iTNGNOcu3MmJQ
MC7te2cW6vfB9sjoUwIDAQABo4H5MIH2MAkGA1UdEwQCMAAwMwYJYIZIAYb4QgEN
BCYWJE9wZW5TU0wgR2VuZXJhdGVkIFNlcnZlciBDZXJ0aWZpY2F0ZTAdBgNVHQ4E
FgQU1KCvwgC2uSiTn9C48Z4KHJK10o4wgZQGA1UdIwSBjDCBiYAU7nTw0oxSIzPE
X0FJ2QERRLjNMMuhW6RZMFcxCzAJBgNVBAYTAkFVMRMwEQYDVQQIDApTb21lLVN0
YXRlMSEwHwYDVQQKDBhJbnRlcm5ldCBXaWRnaXRzIFB0eSBMdGQxEDAOBgNVBAMM
B3Jvb3RfY2GCFBfIXPSm97DJ530gFRAsf6GS+C5VMA0GCSqGSIb3DQEBCwUAA4IC
AQBO38FmWLspDu4xRfvPnoWYA7hkuxeTkrnCUU8G+nugRWy7u7/kVz1d0pBpWDuS
hKubavH+EVDXOe2WvHtdou9gUJZf4rmgdERd1iWQ1xX1k98DRqNxvuzLGO5XQAsb
Y0u/JQZVbVTZGClNDe+0egCW+S64s+2y55Cg2ErpsC23OnWIydmgQH7RJWfrXepz
SpFp+Uj65eJb8gQ7DG3l8afI6tzsV1Ym2SvCd8JNL8Rwx5mMjMapNWTw9chpFAc2
yko+aYds1DM9dV+GMdXsI2uq034Ms3A/vNBp1eBiZPo1k6QIf8t+tSmpJohQlycA
vlWfdf0qy+kO+9GZ9K5e6LM/NjxTA97k8AiM5nVefE34vKlViQJ9f0Mk+Vzn4AEy
epo7JRvARj2OASjj+yNstQmIKzpYROpJ5jGteZYvfEfgyqwXnlG/2jQybVLnjQvJ
4Jvji5Uz6xQGMBqXLgV8B+sv+6x2mFkAYyWGU0DMWFcqueG7aK617IfKhX/mE/1b
LH2JIauS0GvRyuGhV24wokBfCbAKP/fQjilaGYBouVQ0RQphIFEfca6BqQBXwXUw
Wh1ZwprZWZH4aPKtTzCdS/jmCyi9xWPJOB1nugB06gHwzb5syhF0fWdiYZoIYzXk
1yRrCsxx17LJWu/AlXiVrgewnbqavflY5VNMZBrIK/C+FQ==
-----END CERTIFICATE-----
