Certificate:
    Data:
        Version: 3 (0x2)
        Serial Number: 3 (0x3)
        Signature Algorithm: sha256WithRSAEncryption
        Issuer: C=AU, ST=Some-State, O=Internet Widgits Pty Ltd, CN=root_ca
        Validity
            Not Before: Jan  6 09:08:30 2021 GMT
            Not After : Dec 13 09:08:30 2120 GMT
        Subject: C=AU, ST=Some-State, O=Internet Widgits Pty Ltd, CN=ocsp
        Subject Public Key Info:
            Public Key Algorithm: rsaEncryption
                RSA Public-Key: (4096 bit)
                Modulus:
                    00:ad:42:56:8d:7e:7e:0b:3a:0c:2f:d2:e2:c6:fa:
                    7d:aa:37:4c:ba:bc:84:59:1c:2d:f0:ad:08:8f:e6:
                    49:4b:6a:4d:db:85:ce:43:90:63:48:bf:51:34:de:
                    c7:9d:7c:60:65:3d:49:44:0d:ee:09:88:cb:fc:50:
                    71:b7:04:d0:1a:a8:2d:fc:f5:ae:6f:b8:0c:6f:b9:
                    74:ec:07:66:ca:c8:b7:2d:11:ac:52:ba:cc:7c:b0:
                    ae:42:48:d8:5b:49:5b:55:95:f1:e7:c0:0d:82:4b:
                    09:35:79:0a:3d:32:cc:fd:b2:9a:72:a6:fa:b1:42:
                    d9:d8:a8:dc:71:f3:b6:55:93:4a:25:96:11:be:56:
                    e2:3d:09:cf:d7:03:ab:48:0d:23:5c:f5:d2:78:39:
                    e1:ad:6b:f2:ed:e6:c9:2c:47:86:79:85:ff:e4:6a:
                    d7:dc:f8:a7:6a:a2:5d:45:da:68:1d:79:dd:76:e8:
                    e5:9f:1c:c8:5c:45:af:0d:69:de:4f:02:15:7e:c2:
                    84:66:15:f1:15:30:4d:e2:9a:fe:27:ce:71:7f:27:
                    91:e1:de:8f:7c:72:e0:e7:57:b7:a1:54:94:0d:de:
                    dc:da:8d:10:e5:45:40:30:d4:19:c4:07:52:42:fe:
                    e6:92:14:34:9e:2d:a7:36:2c:94:b0:f6:e1:0b:1e:
                    31:f4:55:79:80:13:c4:21:c8:16:bb:40:da:73:47:
                    d4:60:94:63:24:38:9b:8d:81:31:98:ed:0b:b1:96:
                    e6:21:13:a8:5c:a2:ed:92:c0:73:74:96:06:12:79:
                    12:1b:0d:65:03:bb:49:77:3f:90:86:2e:80:33:35:
                    77:3e:28:43:06:df:21:7e:6b:22:08:c6:17:e1:27:
                    25:f5:f6:0f:89:5d:29:5e:c8:f4:72:71:ff:db:4d:
                    21:c1:8c:4e:ff:6a:25:a1:d2:8e:52:16:74:bf:ba:
                    99:e0:7e:d9:da:ce:09:92:9d:1e:76:f1:fc:f9:2d:
                    8e:70:d6:8d:aa:9a:9f:64:9b:e8:5e:54:e6:19:07:
                    60:20:b1:02:e6:22:44:27:f7:e4:26:7f:77:c4:a5:
                    49:39:9b:9a:e0:75:f0:7c:f5:c4:1d:cc:c3:ab:62:
                    b2:1c:95:5b:38:e8:0c:c9:cf:f5:8e:2f:58:e9:a0:
                    3b:0e:71:7f:a9:ce:1c:37:60:0c:7d:07:6a:b9:bc:
                    f8:3e:19:fc:24:6d:33:5d:16:27:87:96:64:5d:a7:
                    78:54:15:10:a4:37:d7:fe:95:4c:83:1a:d2:b8:3a:
                    5a:9a:e7:93:93:d7:a4:0d:1a:2d:01:bf:66:b2:ae:
                    8c:2c:b7:83:18:d7:7e:60:84:0e:2d:52:2d:21:01:
                    73:28:81
                Exponent: 65537 (0x10001)
        X509v3 extensions:
            X509v3 Basic Constraints: 
                CA:FALSE
            X509v3 Subject Key Identifier: 
                1C:9C:64:99:1C:06:4F:19:59:00:2C:35:8E:0F:5F:25:E3:4B:2B:2C
            X509v3 Authority Key Identifier: 
                keyid:EE:74:F0:D2:8C:52:23:33:C4:5F:41:49:D9:01:11:44:B8:CD:30:CB

            X509v3 Key Usage: critical
                Digital Signature
            X509v3 Extended Key Usage: critical
                OCSP Signing
    Signature Algorithm: sha256WithRSAEncryption
         1f:15:e5:9f:ef:5f:77:d1:4a:5c:53:60:53:cf:59:5d:12:ad:
         95:c2:a4:ba:a5:64:27:5f:6c:94:15:7e:56:bb:23:05:2c:61:
         f2:3b:cc:43:f7:9f:00:04:ca:57:d9:04:de:69:db:57:c6:c6:
         bc:2d:95:a6:ea:15:ce:24:f0:76:81:fe:b1:ed:ff:86:d1:29:
         4a:f0:b9:38:7f:40:7d:46:a9:9d:2a:24:8a:5a:09:61:c7:5a:
         db:97:da:10:fe:d5:16:79:2b:30:1c:fa:34:c4:99:c4:23:99:
         97:34:45:1e:ab:66:43:4e:b2:5f:08:95:f8:d2:dd:0a:2d:ee:
         e7:ea:d2:7c:2b:59:a1:13:0a:24:75:02:7b:a1:ac:fc:01:a7:
         33:97:11:4f:e4:1e:74:65:77:11:81:29:25:f8:af:f0:2e:86:
         09:01:8d:66:58:17:8a:f3:2f:ec:9f:53:f2:cd:02:6b:31:fb:
         90:07:f3:48:b6:75:5d:03:81:42:4a:0b:e6:81:c1:a8:92:34:
         c5:86:29:20:90:37:7a:2c:a3:de:21:7a:a2:e2:d2:59:54:9b:
         83:22:54:99:1a:e6:41:bf:44:cc:bc:54:18:c0:f4:be:5b:2b:
         55:aa:1d:75:33:3d:64:e1:59:ee:9c:73:cb:8a:96:ba:13:36:
         35:04:8c:6c:14:ef:c9:0d:60:b7:c2:14:fb:05:23:8f:fc:32:
         df:36:c5:34:e7:6f:8f:20:31:8f:cf:f6:20:94:e1:c6:d7:61:
         2a:af:89:6b:f3:56:4a:d6:55:bc:0c:b0:13:18:70:69:79:c0:
         5c:5c:3f:c7:04:55:b4:8e:97:37:80:cd:26:ad:23:db:ad:1c:
         df:78:32:f5:3e:5c:f4:c9:f6:61:a0:38:5d:93:fc:7c:a7:a1:
         72:e5:b0:8e:f4:e8:a5:5e:d8:46:a5:3a:dd:05:fd:44:98:90:
         74:ad:84:a4:e5:41:e6:2b:68:6d:37:f3:02:7b:0f:db:64:86:
         53:78:91:cf:b3:33:c1:4f:bd:1d:7a:85:16:d8:e1:3e:58:3a:
         5c:05:44:8b:2e:c8:e0:5c:ec:9f:f8:15:ed:35:6a:0b:bb:f5:
         6f:62:09:07:bf:b6:13:5d:5e:ae:28:a6:bc:a2:b2:f2:15:ef:
         7f:66:d0:9a:99:5e:06:b1:7f:58:23:23:a1:98:ba:84:6b:ac:
         d6:f1:08:ee:1a:a2:c9:87:c6:24:2d:43:cb:7f:60:c8:b3:47:
         66:ff:1d:c3:61:05:b3:41:58:82:c0:5e:8d:06:9a:48:7e:19:
         cb:3a:48:f9:df:26:1a:bd:de:49:3e:e9:f6:76:4e:81:3a:9f:
         13:20:86:81:a3:43:32:e4
-----BEGIN CERTIFICATE-----
MIIFnTCCA4WgAwIBAgIBAzANBgkqhkiG9w0BAQsFADBXMQswCQYDVQQGEwJBVTET
MBEGA1UECAwKU29tZS1TdGF0ZTEhMB8GA1UECgwYSW50ZXJuZXQgV2lkZ2l0cyBQ
dHkgTHRkMRAwDgYDVQQDDAdyb290X2NhMCAXDTIxMDEwNjA5MDgzMFoYDzIxMjAx
MjEzMDkwODMwWjBUMQswCQYDVQQGEwJBVTETMBEGA1UECAwKU29tZS1TdGF0ZTEh
MB8GA1UECgwYSW50ZXJuZXQgV2lkZ2l0cyBQdHkgTHRkMQ0wCwYDVQQDDARvY3Nw
MIICIjANBgkqhkiG9w0BAQEFAAOCAg8AMIICCgKCAgEArUJWjX5+CzoML9Lixvp9
qjdMuryEWRwt8K0Ij+ZJS2pN24XOQ5BjSL9RNN7HnXxgZT1JRA3uCYjL/FBxtwTQ
Gqgt/PWub7gMb7l07Admysi3LRGsUrrMfLCuQkjYW0lbVZXx58ANgksJNXkKPTLM
/bKacqb6sULZ2KjccfO2VZNKJZYRvlbiPQnP1wOrSA0jXPXSeDnhrWvy7ebJLEeG
eYX/5GrX3PinaqJdRdpoHXnddujlnxzIXEWvDWneTwIVfsKEZhXxFTBN4pr+J85x
fyeR4d6PfHLg51e3oVSUDd7c2o0Q5UVAMNQZxAdSQv7mkhQ0ni2nNiyUsPbhCx4x
9FV5gBPEIcgWu0Dac0fUYJRjJDibjYExmO0LsZbmIROoXKLtksBzdJYGEnkSGw1l
A7tJdz+Qhi6AMzV3PihDBt8hfmsiCMYX4Scl9fYPiV0pXsj0cnH/200hwYxO/2ol
odKOUhZ0v7qZ4H7Z2s4Jkp0edvH8+S2OcNaNqpqfZJvoXlTmGQdgILEC5iJEJ/fk
Jn93xKVJOZua4HXwfPXEHczDq2KyHJVbOOgMyc/1ji9Y6aA7DnF/qc4cN2AMfQdq
ubz4Phn8JG0zXRYnh5ZkXad4VBUQpDfX/pVMgxrSuDpamueTk9ekDRotAb9msq6M
LLeDGNd+YIQOLVItIQFzKIECAwEAAaN1MHMwCQYDVR0TBAIwADAdBgNVHQ4EFgQU
HJxkmRwGTxlZACw1jg9fJeNLKywwHwYDVR0jBBgwFoAU7nTw0oxSIzPEX0FJ2QER
RLjNMMswDgYDVR0PAQH/BAQDAgeAMBYGA1UdJQEB/wQMMAoGCCsGAQUFBwMJMA0G
CSqGSIb3DQEBCwUAA4ICAQAfFeWf71930UpcU2BTz1ldEq2VwqS6pWQnX2yUFX5W
uyMFLGHyO8xD958ABMpX2QTeadtXxsa8LZWm6hXOJPB2gf6x7f+G0SlK8Lk4f0B9
RqmdKiSKWglhx1rbl9oQ/tUWeSswHPo0xJnEI5mXNEUeq2ZDTrJfCJX40t0KLe7n
6tJ8K1mhEwokdQJ7oaz8AaczlxFP5B50ZXcRgSkl+K/wLoYJAY1mWBeK8y/sn1Py
zQJrMfuQB/NItnVdA4FCSgvmgcGokjTFhikgkDd6LKPeIXqi4tJZVJuDIlSZGuZB
v0TMvFQYwPS+WytVqh11Mz1k4VnunHPLipa6EzY1BIxsFO/JDWC3whT7BSOP/DLf
NsU052+PIDGPz/YglOHG12Eqr4lr81ZK1lW8DLATGHBpecBcXD/HBFW0jpc3gM0m
rSPbrRzfeDL1Plz0yfZhoDhdk/x8p6Fy5bCO9OilXthGpTrdBf1EmJB0rYSk5UHm
K2htN/MCew/bZIZTeJHPszPBT70deoUW2OE+WDpcBUSLLsjgXOyf+BXtNWoLu/Vv
YgkHv7YTXV6uKKa8orLyFe9/ZtCamV4GsX9YIyOhmLqEa6zW8QjuGqLJh8YkLUPL
f2DIs0dm/x3DYQWzQViCwF6NBppIfhnLOkj53yYavd5JPun2dk6BOp8TIIaBo0My
5A==
-----END CERTIFICATE-----
