Certificate:
    Data:
        Version: 3 (0x2)
        Serial Number: 2 (0x2)
        Signature Algorithm: sha256WithRSAEncryption
        Issuer: C=AU, ST=Some-State, O=Internet Widgits Pty Ltd, CN=root_ca
        Validity
            Not Before: Jan  6 09:04:27 2021 GMT
            Not After : Dec 13 09:04:27 2120 GMT
        Subject: C=AU, ST=Some-State, O=Internet Widgits Pty Ltd, CN=revoked_server
        Subject Public Key Info:
            Public Key Algorithm: rsaEncryption
                RSA Public-Key: (2048 bit)
                Modulus:
                    00:c4:9d:d8:08:f1:09:b2:03:a4:d9:60:cd:91:98:
                    2b:b3:59:26:e9:15:33:79:91:2c:3f:d9:d4:f4:63:
                    38:32:35:d9:c2:6c:e7:b0:7e:ee:5f:3b:3c:96:6e:
                    08:d7:40:7d:08:e2:94:92:15:6f:4b:06:40:fb:77:
                    e7:a1:2c:70:b2:f6:9e:d9:6c:16:0c:e5:20:58:42:
                    f4:85:c6:62:d4:83:26:2b:2b:e2:84:de:03:29:72:
                    7e:34:de:ec:34:b1:c5:36:d5:5e:62:87:80:90:f0:
                    83:18:f3:e8:87:a9:48:bc:9c:8c:78:87:5c:e1:92:
                    09:a5:5c:2e:83:d4:e5:fa:16:25:f5:13:97:ee:de:
                    ae:df:88:7f:c4:9d:f5:5a:a8:54:29:a1:c8:4e:1b:
                    53:a3:60:3b:85:92:60:55:61:5b:eb:f4:a5:f8:54:
                    07:fd:c9:e6:1d:9c:34:08:6d:08:46:24:89:c1:41:
                    6c:49:d1:0f:f6:09:e9:f9:f0:46:97:b4:b2:30:63:
                    06:be:f5:77:58:b7:d4:5f:8a:39:ec:07:14:90:0d:
                    8e:b8:cf:fc:49:88:f4:77:ba:d0:9f:b0:55:5e:69:
                    2c:02:f1:43:a6:0d:38:3a:25:06:d5:b3:f8:02:0b:
                    8a:cb:86:28:97:f8:94:b5:10:ea:f2:2d:c9:63:92:
                    c9:c5
                Exponent: 65537 (0x10001)
        X509v3 extensions:
            X509v3 Basic Constraints: 
                CA:FALSE
            Netscape Comment: 
                OpenSSL Generated Server Certificate
            X509v3 Subject Key Identifier: 
                60:7D:D2:BF:6D:A9:35:43:AC:E4:E6:79:62:40:23:D8:5A:B9:8D:4B
            X509v3 Authority Key Identifier: 
                keyid:EE:74:F0:D2:8C:52:23:33:C4:5F:41:49:D9:01:11:44:B8:CD:30:CB
                DirName:/C=AU/ST=Some-State/O=Internet Widgits Pty Ltd/CN=root_ca
                serial:17:C8:5C:F4:A6:F7:B0:C9:E7:7D:20:15:10:2C:7F:A1:92:F8:2E:55

            Authority Information Access: 
                OCSP - URI:http://127.0.0.1:8888

    Signature Algorithm: sha256WithRSAEncryption
         b7:d0:b1:21:47:64:47:ab:86:c6:cf:b6:3f:10:1f:5d:e2:ec:
         f7:01:86:93:7a:f1:d1:8e:90:99:7f:d0:33:c6:7c:37:08:07:
         f0:fa:ed:ec:d6:a0:08:d8:ab:c7:e1:be:34:75:a1:05:75:b6:
         67:91:ce:3a:8a:4d:b4:df:ce:73:b2:d6:13:f4:08:aa:94:8e:
         c5:07:27:f0:46:a7:38:65:c3:30:98:55:ef:2a:2f:7d:bb:ef:
         cd:fc:1c:22:14:36:e6:7a:c1:91:c2:4b:be:40:61:6f:89:f9:
         b3:24:1b:4f:fb:87:16:be:6b:0e:c4:a0:df:05:c6:9d:b7:50:
         bd:c8:a4:fb:89:96:0a:9f:55:23:6f:2c:00:6f:1f:0e:59:c9:
         f4:cd:13:45:82:60:c1:45:a2:71:c0:f0:81:ec:74:94:ae:4e:
         2b:e5:5d:12:2a:7c:51:17:17:40:93:71:20:16:99:90:72:b1:
         21:13:53:a2:eb:d8:2e:bd:96:99:a8:73:56:b8:d5:c1:cc:1e:
         b8:6f:27:a7:30:f9:d6:eb:ca:df:27:ca:e3:c4:4b:a0:dd:ac:
         55:d7:cd:14:7e:89:fa:e4:a4:bc:08:31:d7:45:67:3e:33:ba:
         e1:ad:82:3b:8b:e1:f7:78:4c:4c:75:54:e3:b9:3f:c3:fd:31:
         14:a6:8b:83:c9:8b:c1:14:8f:5f:10:8d:ed:58:2f:c2:bf:06:
         5c:f8:ea:70:f0:4e:4a:00:0e:82:fb:c6:ad:9e:4a:da:da:93:
         fb:06:29:4b:83:46:c0:ba:d1:2a:cc:22:83:a3:36:0e:8d:b6:
         72:82:be:59:02:e6:65:70:33:d6:49:97:5f:b4:10:1e:8b:79:
         21:5c:0b:69:de:8b:29:0a:c2:b5:d4:c4:53:f9:77:8a:8c:38:
         89:d4:f4:18:a3:17:1f:07:65:c9:d2:e5:3d:51:5e:90:0a:87:
         e2:52:c0:e2:89:5d:c5:13:22:ae:42:eb:f5:76:bb:0a:45:6a:
         a1:7d:1c:2b:6d:b7:c1:f9:9e:03:ba:6e:72:43:c7:7f:a2:9c:
         9d:6c:69:61:a9:0c:41:7a:d4:62:53:18:6c:60:02:cb:0e:73:
         38:94:1e:2e:d6:8e:58:b9:b9:1d:fb:c9:8b:4b:09:2b:b6:2f:
         7e:26:51:ef:56:b5:05:7a:d9:d7:e2:22:29:06:7d:70:2f:85:
         94:27:f9:5c:89:f1:70:c0:31:c7:c9:bf:29:e8:bb:7e:cb:69:
         83:cf:4b:64:4e:6d:b7:ea:58:a7:0c:ab:df:6c:78:47:27:a7:
         5b:a9:cf:fd:38:a4:e3:6e:74:7d:12:a9:83:8f:39:3f:46:3b:
         3b:ed:63:59:a6:e1:91:a6
-----BEGIN CERTIFICATE-----
MIIFYTCCA0mgAwIBAgIBAjANBgkqhkiG9w0BAQsFADBXMQswCQYDVQQGEwJBVTET
MBEGA1UECAwKU29tZS1TdGF0ZTEhMB8GA1UECgwYSW50ZXJuZXQgV2lkZ2l0cyBQ
dHkgTHRkMRAwDgYDVQQDDAdyb290X2NhMCAXDTIxMDEwNjA5MDQyN1oYDzIxMjAx
MjEzMDkwNDI3WjBeMQswCQYDVQQGEwJBVTETMBEGA1UECAwKU29tZS1TdGF0ZTEh
MB8GA1UECgwYSW50ZXJuZXQgV2lkZ2l0cyBQdHkgTHRkMRcwFQYDVQQDDA5yZXZv
a2VkX3NlcnZlcjCCASIwDQYJKoZIhvcNAQEBBQADggEPADCCAQoCggEBAMSd2Ajx
CbIDpNlgzZGYK7NZJukVM3mRLD/Z1PRjODI12cJs57B+7l87PJZuCNdAfQjilJIV
b0sGQPt356EscLL2ntlsFgzlIFhC9IXGYtSDJisr4oTeAylyfjTe7DSxxTbVXmKH
gJDwgxjz6IepSLycjHiHXOGSCaVcLoPU5foWJfUTl+7ert+If8Sd9VqoVCmhyE4b
U6NgO4WSYFVhW+v0pfhUB/3J5h2cNAhtCEYkicFBbEnRD/YJ6fnwRpe0sjBjBr71
d1i31F+KOewHFJANjrjP/EmI9He60J+wVV5pLALxQ6YNODolBtWz+AILisuGKJf4
lLUQ6vItyWOSycUCAwEAAaOCAS0wggEpMAkGA1UdEwQCMAAwMwYJYIZIAYb4QgEN
BCYWJE9wZW5TU0wgR2VuZXJhdGVkIFNlcnZlciBDZXJ0aWZpY2F0ZTAdBgNVHQ4E
FgQUYH3Sv22pNUOs5OZ5YkAj2Fq5jUswgZQGA1UdIwSBjDCBiYAU7nTw0oxSIzPE
X0FJ2QERRLjNMMuhW6RZMFcxCzAJBgNVBAYTAkFVMRMwEQYDVQQIDApTb21lLVN0
YXRlMSEwHwYDVQQKDBhJbnRlcm5ldCBXaWRnaXRzIFB0eSBMdGQxEDAOBgNVBAMM
B3Jvb3RfY2GCFBfIXPSm97DJ530gFRAsf6GS+C5VMDEGCCsGAQUFBwEBBCUwIzAh
BggrBgEFBQcwAYYVaHR0cDovLzEyNy4wLjAuMTo4ODg4MA0GCSqGSIb3DQEBCwUA
A4ICAQC30LEhR2RHq4bGz7Y/EB9d4uz3AYaTevHRjpCZf9Azxnw3CAfw+u3s1qAI
2KvH4b40daEFdbZnkc46ik20385zstYT9AiqlI7FByfwRqc4ZcMwmFXvKi99u+/N
/BwiFDbmesGRwku+QGFvifmzJBtP+4cWvmsOxKDfBcadt1C9yKT7iZYKn1UjbywA
bx8OWcn0zRNFgmDBRaJxwPCB7HSUrk4r5V0SKnxRFxdAk3EgFpmQcrEhE1Oi69gu
vZaZqHNWuNXBzB64byenMPnW68rfJ8rjxEug3axV180Ufon65KS8CDHXRWc+M7rh
rYI7i+H3eExMdVTjuT/D/TEUpouDyYvBFI9fEI3tWC/CvwZc+Opw8E5KAA6C+8at
nkra2pP7BilLg0bAutEqzCKDozYOjbZygr5ZAuZlcDPWSZdftBAei3khXAtp3osp
CsK11MRT+XeKjDiJ1PQYoxcfB2XJ0uU9UV6QCofiUsDiiV3FEyKuQuv1drsKRWqh
fRwrbbfB+Z4Dum5yQ8d/opydbGlhqQxBetRiUxhsYALLDnM4lB4u1o5Yubkd+8mL
Swkrti9+JlHvVrUFetnX4iIpBn1wL4WUJ/lcifFwwDHHyb8p6Lt+y2mDz0tkTm23
6linDKvfbHhHJ6dbqc/9OKTjbnR9EqmDjzk/Rjs77WNZpuGRpg==
-----END CERTIFICATE-----
