Certificate:
    Data:
        Version: 3 (0x2)
        Serial Number:
            6f:8d:09:55:4c:2e:11:44:44:77:66:52:3b:cc:ef:5c:f6:40:6a:5d
        Signature Algorithm: sha256WithRSAEncryption
        Issuer: C = AU, ST = Some-State, O = Internet Widgits Pty Ltd, CN = root_ca
        Validity
            Not Before: Apr 24 12:14:33 2023 GMT
            Not After : Apr 19 12:14:33 2043 GMT
        Subject: C = AU, ST = Some-State, O = Internet Widgits Pty Ltd, CN = root_ca
        Subject Public Key Info:
            Public Key Algorithm: rsaEncryption
                RSA Public-Key: (4096 bit)
                Modulus:
                    00:ba:5a:83:95:68:39:d6:30:63:2e:8d:df:32:0e:
                    49:26:1f:cf:74:9c:e9:19:5b:90:18:05:e8:d1:dc:
                    f0:67:09:1b:46:2a:b4:9c:61:5b:bd:c2:d3:43:39:
                    3a:d7:67:bb:3d:2a:fb:a1:a0:11:ce:ac:df:8c:51:
                    2e:43:0e:0e:a1:aa:96:f4:da:e0:b9:51:fe:3e:72:
                    80:ec:63:0e:f4:5f:8d:55:88:7b:2e:05:4d:48:b4:
                    6d:49:d2:fa:0d:d2:53:62:da:40:43:77:2e:8f:ce:
                    33:e6:c5:e2:52:f5:19:a1:93:21:3b:98:91:c9:de:
                    f8:d4:7d:76:28:a4:a5:c4:de:0f:e9:c8:e7:dc:94:
                    aa:d2:ef:35:97:f4:58:af:f7:76:15:75:a0:58:67:
                    92:f9:20:8e:39:bd:20:27:73:39:94:c3:0a:9c:b7:
                    a0:f0:75:a4:12:0d:b7:99:e6:f0:0e:16:8d:e3:9c:
                    37:fe:b0:4b:c5:67:d1:ad:61:f1:a2:8f:33:d8:11:
                    11:f3:b8:23:2c:82:4a:f2:05:6b:5d:46:cf:c3:bd:
                    fb:21:4f:9f:28:b2:5e:e7:24:fc:ed:ac:9a:12:bf:
                    bc:10:3f:c9:e5:08:0c:f3:39:9e:49:df:3f:37:5b:
                    73:a4:5c:25:f6:ea:cc:68:90:ea:51:5b:8d:ae:17:
                    59:b8:13:ef:4c:e0:da:a6:74:ab:bd:64:80:a3:46:
                    25:49:9d:b4:a3:6a:8f:2c:be:36:91:3d:6e:fb:d2:
                    e8:f5:fb:dc:20:08:9d:79:2b:e4:d8:b8:3c:e8:c3:
                    11:0d:7e:59:94:a2:73:9d:ba:dd:97:c4:10:d5:13:
                    71:86:88:6c:c3:52:7c:35:eb:34:87:2b:dc:15:20:
                    4b:f0:3a:a2:a7:30:de:20:c9:7b:15:b0:9d:69:93:
                    2e:4d:f0:73:d1:18:bf:4f:d0:a8:1c:12:f6:90:1d:
                    1e:e5:c0:75:57:50:ec:46:03:64:3f:0e:99:8c:f0:
                    41:6a:98:74:be:5f:fe:bc:2c:75:85:1f:53:ff:e5:
                    60:15:4c:a6:25:cd:9e:e9:0f:2e:c0:73:59:f4:16:
                    fe:60:2e:2f:28:8f:88:e7:ad:c0:b8:c9:c5:82:3a:
                    89:11:46:a6:15:e6:ef:96:e0:55:75:79:d0:d1:3d:
                    47:69:fa:d7:06:ce:31:91:61:6d:35:eb:96:e5:38:
                    2f:e2:79:e8:da:a2:c0:49:49:d0:18:ea:17:3e:6e:
                    9c:f6:e3:e5:8a:3e:51:ca:96:fa:38:5b:1b:21:8f:
                    b9:f0:44:f5:43:46:50:e3:68:2e:21:f0:af:03:2f:
                    9c:67:4b:14:54:83:ea:1e:64:89:c3:39:26:e1:32:
                    56:c4:61
                Exponent: 65537 (0x10001)
        X509v3 extensions:
            X509v3 Subject Key Identifier: 
                EE:74:F0:D2:8C:52:23:33:C4:5F:41:49:D9:01:11:44:B8:CD:30:CB
            X509v3 Authority Key Identifier: 
                keyid:EE:74:F0:D2:8C:52:23:33:C4:5F:41:49:D9:01:11:44:B8:CD:30:CB

            X509v3 Basic Constraints: critical
                CA:TRUE
            Authority Information Access: 
                OCSP - URI:http://127.0.0.1:8888

    Signature Algorithm: sha256WithRSAEncryption
         00:2f:9d:b2:7c:9b:2b:97:e0:25:92:57:65:87:a4:64:df:c9:
         2a:be:dc:02:d5:65:ca:1c:0d:bb:79:88:b0:17:f9:34:91:f3:
         37:72:3a:d3:af:c0:54:e1:e4:23:99:b8:ef:b6:c8:3d:da:de:
         d2:ef:dc:7b:4a:de:67:f5:9a:ea:fd:a1:a5:eb:23:a4:eb:88:
         e7:55:c0:9a:ca:8b:7f:7a:cb:bc:37:fd:e7:03:b0:e1:b6:16:
         45:aa:78:15:b0:d9:19:ae:29:91:ee:0a:4a:9a:d4:e1:7a:a1:
         6f:dd:7e:bb:02:43:f5:b3:4f:cc:71:b5:82:06:9e:b2:9a:b9:
         cc:a7:1c:4d:71:93:2a:16:03:f6:07:5a:8e:b9:87:55:40:24:
         70:c1:56:95:42:d1:97:75:42:e7:f8:02:a1:11:7e:9e:52:cd:
         2e:bf:83:74:50:2b:b9:7a:e0:6f:dc:e9:74:34:1e:51:5a:e9:
         49:42:ae:c0:e7:54:a9:29:78:88:66:8c:44:b3:c3:b8:2b:f1:
         23:fd:92:97:1d:c4:ef:58:16:34:0f:63:f6:4b:70:7b:bd:59:
         e5:a2:9f:ac:00:43:df:f8:ad:75:d4:3b:30:77:09:27:5c:57:
         73:e5:1d:a9:79:8c:5d:b7:51:04:ad:96:01:21:1d:18:03:07:
         c9:49:8b:54:16:7d:e0:4e:ab:fa:78:67:a3:c7:b2:6b:5b:1f:
         60:b4:62:23:1b:16:2e:20:6c:8a:bf:db:1d:d2:6e:65:db:bd:
         31:3a:a8:5a:09:99:87:80:09:3a:b4:04:79:92:74:20:bf:df:
         6f:d6:4f:87:43:32:1f:84:df:66:9e:b1:9a:5a:f4:26:4e:81:
         0a:c6:d5:49:2e:49:ce:98:da:2a:94:7c:6c:80:3a:e4:71:a1:
         02:8f:3e:a3:65:4e:c0:1b:97:ba:74:0f:dc:49:f9:cb:de:8c:
         b8:c3:1d:01:73:7d:71:42:b6:4e:66:59:db:b1:04:9f:80:ca:
         99:2f:d0:b8:e1:16:de:ab:cf:e4:62:4c:c6:e8:f0:72:0f:df:
         c7:a8:67:9d:a9:84:c0:fa:ca:fb:e7:34:c1:de:0c:2f:b2:ff:
         7a:4d:49:a0:b9:52:9c:72:7b:45:88:e3:50:58:4d:b9:75:8a:
         c5:f2:7a:b2:54:96:24:e8:91:b5:71:d0:2f:bf:13:1f:1f:1b:
         1c:92:5c:ec:2a:cd:cb:da:ba:31:33:66:db:88:d6:35:18:91:
         3e:70:08:82:06:8b:34:2e:5c:c9:0f:44:96:69:e2:19:0e:3c:
         df:80:87:ec:51:db:3a:2b:56:69:1a:6a:27:23:96:5f:85:09:
         76:2e:1e:23:c1:f8:be:fc
-----BEGIN CERTIFICATE-----
MIIFxDCCA6ygAwIBAgIUb40JVUwuEUREd2ZSO8zvXPZAal0wDQYJKoZIhvcNAQEL
BQAwVzELMAkGA1UEBhMCQVUxEzARBgNVBAgMClNvbWUtU3RhdGUxITAfBgNVBAoM
GEludGVybmV0IFdpZGdpdHMgUHR5IEx0ZDEQMA4GA1UEAwwHcm9vdF9jYTAeFw0y
MzA0MjQxMjE0MzNaFw00MzA0MTkxMjE0MzNaMFcxCzAJBgNVBAYTAkFVMRMwEQYD
VQQIDApTb21lLVN0YXRlMSEwHwYDVQQKDBhJbnRlcm5ldCBXaWRnaXRzIFB0eSBM
dGQxEDAOBgNVBAMMB3Jvb3RfY2EwggIiMA0GCSqGSIb3DQEBAQUAA4ICDwAwggIK
AoICAQC6WoOVaDnWMGMujd8yDkkmH890nOkZW5AYBejR3PBnCRtGKrScYVu9wtND
OTrXZ7s9KvuhoBHOrN+MUS5DDg6hqpb02uC5Uf4+coDsYw70X41ViHsuBU1ItG1J
0voN0lNi2kBDdy6PzjPmxeJS9RmhkyE7mJHJ3vjUfXYopKXE3g/pyOfclKrS7zWX
9Fiv93YVdaBYZ5L5II45vSAnczmUwwqct6DwdaQSDbeZ5vAOFo3jnDf+sEvFZ9Gt
YfGijzPYERHzuCMsgkryBWtdRs/DvfshT58osl7nJPztrJoSv7wQP8nlCAzzOZ5J
3z83W3OkXCX26sxokOpRW42uF1m4E+9M4NqmdKu9ZICjRiVJnbSjao8svjaRPW77
0uj1+9wgCJ15K+TYuDzowxENflmUonOdut2XxBDVE3GGiGzDUnw16zSHK9wVIEvw
OqKnMN4gyXsVsJ1pky5N8HPRGL9P0KgcEvaQHR7lwHVXUOxGA2Q/DpmM8EFqmHS+
X/68LHWFH1P/5WAVTKYlzZ7pDy7Ac1n0Fv5gLi8oj4jnrcC4ycWCOokRRqYV5u+W
4FV1edDRPUdp+tcGzjGRYW0165blOC/ieejaosBJSdAY6hc+bpz24+WKPlHKlvo4
Wxshj7nwRPVDRlDjaC4h8K8DL5xnSxRUg+oeZInDOSbhMlbEYQIDAQABo4GHMIGE
MB0GA1UdDgQWBBTudPDSjFIjM8RfQUnZARFEuM0wyzAfBgNVHSMEGDAWgBTudPDS
jFIjM8RfQUnZARFEuM0wyzAPBgNVHRMBAf8EBTADAQH/MDEGCCsGAQUFBwEBBCUw
IzAhBggrBgEFBQcwAYYVaHR0cDovLzEyNy4wLjAuMTo4ODg4MA0GCSqGSIb3DQEB
CwUAA4ICAQAAL52yfJsrl+Alkldlh6Rk38kqvtwC1WXKHA27eYiwF/k0kfM3cjrT
r8BU4eQjmbjvtsg92t7S79x7St5n9Zrq/aGl6yOk64jnVcCayot/esu8N/3nA7Dh
thZFqngVsNkZrimR7gpKmtTheqFv3X67AkP1s0/McbWCBp6ymrnMpxxNcZMqFgP2
B1qOuYdVQCRwwVaVQtGXdULn+AKhEX6eUs0uv4N0UCu5euBv3Ol0NB5RWulJQq7A
51SpKXiIZoxEs8O4K/Ej/ZKXHcTvWBY0D2P2S3B7vVnlop+sAEPf+K111Dswdwkn
XFdz5R2peYxdt1EErZYBIR0YAwfJSYtUFn3gTqv6eGejx7JrWx9gtGIjGxYuIGyK
v9sd0m5l270xOqhaCZmHgAk6tAR5knQgv99v1k+HQzIfhN9mnrGaWvQmToEKxtVJ
LknOmNoqlHxsgDrkcaECjz6jZU7AG5e6dA/cSfnL3oy4wx0Bc31xQrZOZlnbsQSf
gMqZL9C44Rbeq8/kYkzG6PByD9/HqGedqYTA+sr75zTB3gwvsv96TUmguVKccntF
iONQWE25dYrF8nqyVJYk6JG1cdAvvxMfHxscklzsKs3L2roxM2bbiNY1GJE+cAiC
Bos0LlzJD0SWaeIZDjzfgIfsUds6K1ZpGmonI5ZfhQl2Lh4jwfi+/A==
-----END CERTIFICATE-----