Certificate:
    Data:
        Version: 3 (0x2)
        Serial Number: 10 (0xa)
        Signature Algorithm: sha256WithRSAEncryption
        Issuer: C=AU, ST=Some-State, O=Internet Widgits Pty Ltd, CN=intermediate
        Validity
            Not Before: Apr 29 12:45:38 2021 GMT
            Not After : Apr 27 12:45:38 2031 GMT
        Subject: C=AU, ST=Some-State, O=Internet Widgits Pty Ltd, CN=intermeidate_ee
        Subject Public Key Info:
            Public Key Algorithm: rsaEncryption
                RSA Public-Key: (2048 bit)
                Modulus:
                    00:c7:b0:66:2e:39:ea:89:25:a9:17:45:18:ea:28:
                    49:19:d0:c3:29:d0:8a:45:95:ac:71:c3:f2:cb:14:
                    b1:da:09:2e:21:e6:c0:db:b3:b4:ec:44:4a:d6:c9:
                    3c:2a:30:23:df:07:76:43:d0:1c:15:08:ea:17:89:
                    50:d7:71:d7:7f:40:58:32:e8:84:b0:8e:27:b9:c5:
                    f2:c6:51:5a:dc:ff:8c:f7:7a:e1:f0:16:d5:e0:50:
                    10:ff:a9:1a:b6:71:ad:7b:61:2a:ee:e4:ed:9e:79:
                    01:9b:94:80:08:2f:6c:92:85:07:06:b4:11:7a:49:
                    03:42:3b:ee:b6:d5:f1:d5:0f:05:67:94:66:ff:05:
                    95:2f:8b:03:ae:f2:ab:3d:c1:eb:db:03:c2:82:2b:
                    8c:8f:c9:f7:f4:ef:a0:99:f5:7f:fb:c7:2c:1f:00:
                    e4:34:3e:04:c0:7a:ec:b6:08:1a:6e:4d:b1:98:2a:
                    bc:c4:6c:ed:0b:9b:72:62:50:c3:27:07:d8:12:c2:
                    d2:43:a5:83:0e:ba:0b:39:02:6f:a3:27:79:08:7d:
                    27:0e:b5:1c:8e:b8:d1:12:c4:18:9b:e2:53:3a:63:
                    b7:fe:5f:da:4a:26:12:72:20:f3:ff:47:6a:74:22:
                    c8:f7:e2:06:af:6a:3c:52:09:49:6b:95:86:79:af:
                    64:f1
                Exponent: 65537 (0x10001)
        X509v3 extensions:
            X509v3 Basic Constraints: 
                CA:FALSE
            Netscape Comment: 
                OpenSSL Generated Server Certificate
            X509v3 Subject Key Identifier: 
                18:8C:2A:A6:CE:82:E4:7A:35:32:36:2C:E7:D4:83:30:01:E9:BA:55
            X509v3 Authority Key Identifier: 
                keyid:26:9B:22:E1:3C:87:6E:FA:6B:49:8F:AA:23:36:87:B8:99:A4:9B:33
                DirName:/C=AU/ST=Some-State/O=Internet Widgits Pty Ltd/CN=root_ca
                serial:09

            Authority Information Access: 
                OCSP - URI:http://127.0.0.1:8888

    Signature Algorithm: sha256WithRSAEncryption
         b2:5b:eb:45:45:98:88:36:2e:90:f2:c0:ff:9c:1d:19:bc:99:
         18:50:16:7e:5d:29:e5:cf:ee:bb:af:11:b6:44:fa:1f:18:a2:
         91:87:f8:ef:57:b6:d1:1c:05:d7:8a:f1:e1:f3:ee:69:02:bd:
         b2:10:02:5e:40:14:3c:4d:70:d1:01:e8:f4:32:49:db:48:ad:
         2e:24:bb:15:e5:fc:34:9b:fa:2c:be:50:b8:0a:e8:f2:0b:8d:
         0d:b7:09:63:18:6d:63:a7:1d:e2:59:7e:0c:b7:76:fe:80:74:
         f8:2c:8e:40:ef:ba:48:6e:c3:13:f2:5f:69:a1:2e:1f:b4:75:
         31:2f:a1:f2:e7:9d:ba:a9:b7:cc:86:36:e3:b4:26:79:11:03:
         ba:1c:94:52:36:84:7c:38:3b:c0:0b:e6:c0:b6:91:25:b8:4d:
         f9:85:e3:26:6e:ba:58:f6:42:a0:e0:8d:b9:44:38:8f:f4:54:
         81:fa:38:27:e4:d3:cb:24:ef:ec:7c:8f:ab:52:7c:1d:75:14:
         f7:a8:eb:03:3a:1b:dd:6f:85:26:a4:3b:d2:dc:35:f1:cb:70:
         d6:ad:58:02:c0:f6:35:f9:b7:75:19:64:88:27:36:f1:4c:77:
         3b:17:24:1f:44:f7:e6:21:3f:eb:49:c8:51:c3:db:ea:f5:64:
         47:53:e4:45
-----BEGIN CERTIFICATE-----
MIIETzCCAzegAwIBAgIBCjANBgkqhkiG9w0BAQsFADBcMQswCQYDVQQGEwJBVTET
MBEGA1UECAwKU29tZS1TdGF0ZTEhMB8GA1UECgwYSW50ZXJuZXQgV2lkZ2l0cyBQ
dHkgTHRkMRUwEwYDVQQDDAxpbnRlcm1lZGlhdGUwHhcNMjEwNDI5MTI0NTM4WhcN
MzEwNDI3MTI0NTM4WjBfMQswCQYDVQQGEwJBVTETMBEGA1UECAwKU29tZS1TdGF0
ZTEhMB8GA1UECgwYSW50ZXJuZXQgV2lkZ2l0cyBQdHkgTHRkMRgwFgYDVQQDDA9p
bnRlcm1laWRhdGVfZWUwggEiMA0GCSqGSIb3DQEBAQUAA4IBDwAwggEKAoIBAQDH
sGYuOeqJJakXRRjqKEkZ0MMp0IpFlaxxw/LLFLHaCS4h5sDbs7TsRErWyTwqMCPf
B3ZD0BwVCOoXiVDXcdd/QFgy6ISwjie5xfLGUVrc/4z3euHwFtXgUBD/qRq2ca17
YSru5O2eeQGblIAIL2yShQcGtBF6SQNCO+621fHVDwVnlGb/BZUviwOu8qs9wevb
A8KCK4yPyff076CZ9X/7xywfAOQ0PgTAeuy2CBpuTbGYKrzEbO0Lm3JiUMMnB9gS
wtJDpYMOugs5Am+jJ3kIfScOtRyOuNESxBib4lM6Y7f+X9pKJhJyIPP/R2p0Isj3
4gavajxSCUlrlYZ5r2TxAgMBAAGjggEXMIIBEzAJBgNVHRMEAjAAMDMGCWCGSAGG
+EIBDQQmFiRPcGVuU1NMIEdlbmVyYXRlZCBTZXJ2ZXIgQ2VydGlmaWNhdGUwHQYD
VR0OBBYEFBiMKqbOguR6NTI2LOfUgzAB6bpVMH8GA1UdIwR4MHaAFCabIuE8h276
a0mPqiM2h7iZpJszoVukWTBXMQswCQYDVQQGEwJBVTETMBEGA1UECAwKU29tZS1T
dGF0ZTEhMB8GA1UECgwYSW50ZXJuZXQgV2lkZ2l0cyBQdHkgTHRkMRAwDgYDVQQD
DAdyb290X2NhggEJMDEGCCsGAQUFBwEBBCUwIzAhBggrBgEFBQcwAYYVaHR0cDov
LzEyNy4wLjAuMTo4ODg4MA0GCSqGSIb3DQEBCwUAA4IBAQCyW+tFRZiINi6Q8sD/
nB0ZvJkYUBZ+XSnlz+67rxG2RPofGKKRh/jvV7bRHAXXivHh8+5pAr2yEAJeQBQ8
TXDRAej0MknbSK0uJLsV5fw0m/osvlC4CujyC40NtwljGG1jpx3iWX4Mt3b+gHT4
LI5A77pIbsMT8l9poS4ftHUxL6Hy5526qbfMhjbjtCZ5EQO6HJRSNoR8ODvAC+bA
tpEluE35heMmbrpY9kKg4I25RDiP9FSB+jgn5NPLJO/sfI+rUnwddRT3qOsDOhvd
b4UmpDvS3DXxy3DWrVgCwPY1+bd1GWSIJzbxTHc7FyQfRPfmIT/rSchRw9vq9WRH
U+RF
-----END CERTIFICATE-----
Certificate:
    Data:
        Version: 3 (0x2)
        Serial Number: 9 (0x9)
        Signature Algorithm: sha256WithRSAEncryption
        Issuer: C=AU, ST=Some-State, O=Internet Widgits Pty Ltd, CN=root_ca
        Validity
            Not Before: Apr 29 12:39:40 2021 GMT
            Not After : Apr 27 12:39:40 2031 GMT
        Subject: C=AU, ST=Some-State, O=Internet Widgits Pty Ltd, CN=intermediate
        Subject Public Key Info:
            Public Key Algorithm: rsaEncryption
                RSA Public-Key: (2048 bit)
                Modulus:
                    00:d5:3f:f8:ed:ef:a1:23:95:2e:35:87:8a:3a:8f:
                    c3:eb:5c:2b:95:26:65:2a:01:f8:58:93:a3:f0:c1:
                    23:bf:2e:09:bc:e9:fc:73:79:93:98:b6:79:f0:8c:
                    9d:4b:1c:58:b5:63:d9:cb:94:41:a8:78:80:76:d0:
                    dd:9b:c0:af:70:41:6d:58:17:51:23:c2:3a:62:76:
                    53:d1:43:9c:d2:6f:46:8d:4e:d4:37:9f:92:f7:1e:
                    fc:f4:ea:39:ee:e9:3e:49:8e:67:9b:aa:9d:f6:8d:
                    9e:3e:eb:6e:8a:23:7b:94:12:f9:cc:04:d3:69:d8:
                    69:e8:85:cd:69:29:fa:b3:2a:14:a4:f4:05:9c:e7:
                    aa:4c:e1:9a:ea:60:97:72:c0:cb:a7:a9:57:4b:84:
                    a4:1e:d7:7c:85:38:d3:13:ae:f8:80:83:96:30:99:
                    b1:d3:28:4f:5c:0c:2b:b6:61:80:5b:4e:4c:eb:5e:
                    e0:16:23:b3:5e:26:99:68:48:97:fa:94:6b:d7:fe:
                    a2:21:2f:f9:f7:84:22:96:c5:60:dc:ef:ed:39:7f:
                    58:e8:7d:f0:7b:f2:91:5f:2a:f8:e1:08:81:92:e8:
                    f8:e7:65:fc:66:43:0b:9b:9d:0a:c4:8e:6c:a2:f7:
                    4a:df:e8:02:07:af:fa:d9:5c:54:ab:91:49:1e:8d:
                    23:6d
                Exponent: 65537 (0x10001)
        X509v3 extensions:
            X509v3 Subject Key Identifier: 
                26:9B:22:E1:3C:87:6E:FA:6B:49:8F:AA:23:36:87:B8:99:A4:9B:33
            X509v3 Authority Key Identifier: 
                keyid:EE:74:F0:D2:8C:52:23:33:C4:5F:41:49:D9:01:11:44:B8:CD:30:CB

            X509v3 Basic Constraints: critical
                CA:TRUE, pathlen:0
            X509v3 Key Usage: critical
                Digital Signature, Certificate Sign, CRL Sign
            Authority Information Access: 
                OCSP - URI:http://127.0.0.1:8888

    Signature Algorithm: sha256WithRSAEncryption
         97:82:96:e6:62:13:ef:42:fa:82:fc:86:14:26:32:52:bd:fa:
         b3:eb:71:a9:d1:b6:11:b0:5a:99:ab:15:6e:fa:e5:74:c6:f9:
         d7:33:97:56:86:8a:ea:af:46:d1:7e:79:01:29:a4:7d:37:aa:
         06:4a:5a:5d:96:03:3c:93:6a:97:48:eb:dc:6f:b2:1e:2b:fc:
         d3:79:04:e3:05:85:b8:d1:20:23:41:4f:f1:4b:a9:42:17:f2:
         4c:b8:92:f5:22:ad:08:fd:e9:55:23:7b:b3:8d:9d:07:a7:b8:
         1f:e6:26:56:fc:29:23:e6:41:1a:a9:f7:68:2a:1b:82:c0:38:
         db:03:96:c1:6f:07:b4:2c:b5:87:10:79:f1:13:33:18:6c:f0:
         c7:48:75:f5:bf:55:02:76:e6:6d:43:7d:26:00:03:64:39:bb:
         11:ac:c2:b9:7a:18:0a:ed:ff:35:c3:c2:0c:25:6e:6e:d5:0b:
         4a:16:5a:aa:e9:58:7c:5f:26:ad:3e:d2:3e:9b:77:1e:55:84:
         5b:7f:20:37:cd:9e:ff:08:14:3d:b2:84:9b:dc:ac:fa:ff:43:
         4c:cf:2f:db:de:80:78:34:94:71:53:cf:6b:f5:6e:5e:42:6f:
         14:75:2d:99:5b:b6:1b:34:14:56:a1:88:a3:d2:4f:e8:67:19:
         62:73:fd:45:15:80:a3:27:23:82:3e:30:85:fd:ce:2c:50:07:
         f1:4a:82:c4:e9:5b:43:df:82:9d:14:9b:ac:16:e5:2a:59:3b:
         7a:91:b3:34:01:b0:1e:bb:3e:b9:5b:c6:7e:94:7b:12:e6:56:
         d3:c9:b2:8b:e8:f1:db:e1:56:41:8d:85:f4:74:32:4f:90:d5:
         e8:5e:42:fd:57:65:c7:3e:49:15:ba:0b:61:d0:67:8f:0e:0f:
         69:ec:73:14:c3:02:d7:a6:08:f7:87:13:02:5f:5a:82:c6:89:
         84:95:fd:b2:d3:04:5b:cd:98:78:07:44:ea:46:e0:0e:18:07:
         36:8f:cf:bc:a9:e7:d9:39:74:bf:48:dc:eb:d0:8b:52:1d:b8:
         ec:48:06:c4:39:ed:87:bc:3c:0c:db:b5:27:c5:ad:d0:66:b7:
         cf:50:ab:4a:12:c6:bf:70:a7:a6:dc:25:92:63:83:4e:52:dd:
         8c:1a:b8:4d:b2:54:2d:cc:73:20:2d:65:c0:38:87:6d:39:38:
         2f:bb:4a:33:87:37:34:09:0c:5f:51:d6:d0:40:94:6b:e4:47:
         81:d0:44:bc:be:cf:46:86:7c:66:38:65:0a:8c:be:55:83:9c:
         26:a6:fc:3a:f8:34:39:ba:04:7d:f8:d4:05:2b:98:e7:32:ff:
         85:59:e1:8b:eb:17:31:a8
-----BEGIN CERTIFICATE-----
MIIEyTCCArGgAwIBAgIBCTANBgkqhkiG9w0BAQsFADBXMQswCQYDVQQGEwJBVTET
MBEGA1UECAwKU29tZS1TdGF0ZTEhMB8GA1UECgwYSW50ZXJuZXQgV2lkZ2l0cyBQ
dHkgTHRkMRAwDgYDVQQDDAdyb290X2NhMB4XDTIxMDQyOTEyMzk0MFoXDTMxMDQy
NzEyMzk0MFowXDELMAkGA1UEBhMCQVUxEzARBgNVBAgMClNvbWUtU3RhdGUxITAf
BgNVBAoMGEludGVybmV0IFdpZGdpdHMgUHR5IEx0ZDEVMBMGA1UEAwwMaW50ZXJt
ZWRpYXRlMIIBIjANBgkqhkiG9w0BAQEFAAOCAQ8AMIIBCgKCAQEA1T/47e+hI5Uu
NYeKOo/D61wrlSZlKgH4WJOj8MEjvy4JvOn8c3mTmLZ58IydSxxYtWPZy5RBqHiA
dtDdm8CvcEFtWBdRI8I6YnZT0UOc0m9GjU7UN5+S9x789Oo57uk+SY5nm6qd9o2e
PutuiiN7lBL5zATTadhp6IXNaSn6syoUpPQFnOeqTOGa6mCXcsDLp6lXS4SkHtd8
hTjTE674gIOWMJmx0yhPXAwrtmGAW05M617gFiOzXiaZaEiX+pRr1/6iIS/594Qi
lsVg3O/tOX9Y6H3we/KRXyr44QiBkuj452X8ZkMLm50KxI5sovdK3+gCB6/62VxU
q5FJHo0jbQIDAQABo4GaMIGXMB0GA1UdDgQWBBQmmyLhPIdu+mtJj6ojNoe4maSb
MzAfBgNVHSMEGDAWgBTudPDSjFIjM8RfQUnZARFEuM0wyzASBgNVHRMBAf8ECDAG
AQH/AgEAMA4GA1UdDwEB/wQEAwIBhjAxBggrBgEFBQcBAQQlMCMwIQYIKwYBBQUH
MAGGFWh0dHA6Ly8xMjcuMC4wLjE6ODg4ODANBgkqhkiG9w0BAQsFAAOCAgEAl4KW
5mIT70L6gvyGFCYyUr36s+txqdG2EbBamasVbvrldMb51zOXVoaK6q9G0X55ASmk
fTeqBkpaXZYDPJNql0jr3G+yHiv803kE4wWFuNEgI0FP8UupQhfyTLiS9SKtCP3p
VSN7s42dB6e4H+YmVvwpI+ZBGqn3aCobgsA42wOWwW8HtCy1hxB58RMzGGzwx0h1
9b9VAnbmbUN9JgADZDm7EazCuXoYCu3/NcPCDCVubtULShZaqulYfF8mrT7SPpt3
HlWEW38gN82e/wgUPbKEm9ys+v9DTM8v296AeDSUcVPPa/VuXkJvFHUtmVu2GzQU
VqGIo9JP6GcZYnP9RRWAoycjgj4whf3OLFAH8UqCxOlbQ9+CnRSbrBblKlk7epGz
NAGwHrs+uVvGfpR7EuZW08myi+jx2+FWQY2F9HQyT5DV6F5C/Vdlxz5JFboLYdBn
jw4PaexzFMMC16YI94cTAl9agsaJhJX9stMEW82YeAdE6kbgDhgHNo/PvKnn2Tl0
v0jc69CLUh247EgGxDnth7w8DNu1J8Wt0Ga3z1CrShLGv3CnptwlkmODTlLdjBq4
TbJULcxzIC1lwDiHbTk4L7tKM4c3NAkMX1HW0ECUa+RHgdBEvL7PRoZ8ZjhlCoy+
VYOcJqb8Ovg0OboEffjUBSuY5zL/hVnhi+sXMag=
-----END CERTIFICATE-----
